
app.elf:     file format elf32-littleriscv
app.elf
architecture: riscv:rv32, flags 0x00000112:
EXEC_P, HAS_SYMS, D_PAGED
start address 0x00003408

Program Header:
0x70000003 off    0x0003015a vaddr 0x00000000 paddr 0x00000000 align 2**0
         filesz 0x00000034 memsz 0x00000000 flags r--
    LOAD off    0x00001000 vaddr 0x00000000 paddr 0x00000000 align 2**12
         filesz 0x00000020 memsz 0x00000020 flags r-x
    LOAD off    0x00001020 vaddr 0x00000020 paddr 0x00000020 align 2**12
         filesz 0x0002d538 memsz 0x0002d538 flags r-x
    LOAD off    0x0002e558 vaddr 0x0002d558 paddr 0x0002f148 align 2**12
         filesz 0x00001bf0 memsz 0x00001bf0 flags rw-
    LOAD off    0x00000d38 vaddr 0x00030d38 paddr 0x00030d38 align 2**12
         filesz 0x00000000 memsz 0x00000150 flags rw-

Sections:
Idx Name          Size      VMA       LMA       File off  Algn
  0 .entry        00000020  00000000  00000000  00001000  2**5
                  CONTENTS, ALLOC, LOAD, READONLY, CODE
  1 .exceptions   0000029c  00000020  00000020  00001020  2**2
                  CONTENTS, ALLOC, LOAD, READONLY, CODE
  2 .text         0002b2dc  000002bc  000002bc  000012bc  2**2
                  CONTENTS, ALLOC, LOAD, READONLY, CODE
  3 .rodata       00001fb8  0002b5a0  0002b5a0  0002c5a0  2**4
                  CONTENTS, ALLOC, LOAD, READONLY, DATA
  4 .rwdata       00001bf0  0002d558  0002f148  0002e558  2**3
                  CONTENTS, ALLOC, LOAD, DATA
  5 .bss          00000150  00030d38  00030d38  00030d38  2**3
                  ALLOC
  6 .sram         00000000  00030e88  00030e88  00030148  2**0
                  CONTENTS
  7 .comment      00000012  00000000  00000000  00030148  2**0
                  CONTENTS, READONLY
  8 .riscv.attributes 00000034  00000000  00000000  0003015a  2**0
                  CONTENTS, READONLY
  9 .debug_aranges 00000920  00000000  00000000  00030190  2**3
                  CONTENTS, READONLY, DEBUGGING, OCTETS
 10 .debug_info   0000f80d  00000000  00000000  00030ab0  2**0
                  CONTENTS, READONLY, DEBUGGING, OCTETS
 11 .debug_abbrev 00005a85  00000000  00000000  000402bd  2**0
                  CONTENTS, READONLY, DEBUGGING, OCTETS
 12 .debug_line   00013b70  00000000  00000000  00045d42  2**0
                  CONTENTS, READONLY, DEBUGGING, OCTETS
 13 .debug_frame  00001518  00000000  00000000  000598b4  2**2
                  CONTENTS, READONLY, DEBUGGING, OCTETS
 14 .debug_str    00001ffa  00000000  00000000  0005adcc  2**0
                  CONTENTS, READONLY, DEBUGGING, OCTETS
 15 .debug_line_str 00001728  00000000  00000000  0005cdc6  2**0
                  CONTENTS, READONLY, DEBUGGING, OCTETS
 16 .debug_ranges 00000020  00000000  00000000  0005e4f0  2**3
                  CONTENTS, READONLY, DEBUGGING, OCTETS
 17 .debug_rnglists 00003036  00000000  00000000  0005e510  2**0
                  CONTENTS, READONLY, DEBUGGING, OCTETS
 18 .debug_loclists 00014baa  00000000  00000000  00061546  2**0
                  CONTENTS, READONLY, DEBUGGING, OCTETS
SYMBOL TABLE:
00000000 l    d  .entry	00000000 .entry
00000020 l    d  .exceptions	00000000 .exceptions
000002bc l    d  .text	00000000 .text
0002b5a0 l    d  .rodata	00000000 .rodata
0002d558 l    d  .rwdata	00000000 .rwdata
00030d38 l    d  .bss	00000000 .bss
00030e88 l    d  .sram	00000000 .sram
00000000 l    d  .comment	00000000 .comment
00000000 l    d  .riscv.attributes	00000000 .riscv.attributes
00000000 l    d  .debug_aranges	00000000 .debug_aranges
00000000 l    d  .debug_info	00000000 .debug_info
00000000 l    d  .debug_abbrev	00000000 .debug_abbrev
00000000 l    d  .debug_line	00000000 .debug_line
00000000 l    d  .debug_frame	00000000 .debug_frame
00000000 l    d  .debug_str	00000000 .debug_str
00000000 l    d  .debug_line_str	00000000 .debug_line_str
00000000 l    d  .debug_ranges	00000000 .debug_ranges
00000000 l    d  .debug_rnglists	00000000 .debug_rnglists
00000000 l    d  .debug_loclists	00000000 .debug_loclists
00000000 l    df *ABS*	00000000 crt0.S.obj
000034c0 l       .text	00000000 alt_after_alt_main
00000000 l    df *ABS*	00000000 machine_trap.S.obj
00000020 l       .exceptions	00000000 save_registers
00000000 l    df *ABS*	00000000 alt_irq_handler.c
00000000 l    df *ABS*	00000000 nioscode.c
00000000 l    df *ABS*	00000000 alt_load.c
000034c4 l     F .text	00000064 alt_load_section
00000000 l    df *ABS*	00000000 alt_main.c
00000000 l    df *ABS*	00000000 alt_sys_init.c
0002d558 l     O .rwdata	00001060 jtag
00000000 l    df *ABS*	00000000 altera_avalon_jtag_uart_fd.c
00000000 l    df *ABS*	00000000 altera_avalon_jtag_uart_init.c
00003924 l     F .text	00000238 altera_avalon_jtag_uart_irq
00003b5c l     F .text	000000bc altera_avalon_jtag_uart_timeout
00000000 l    df *ABS*	00000000 altera_avalon_jtag_uart_ioctl.c
00000000 l    df *ABS*	00000000 altera_avalon_jtag_uart_read.c
00000000 l    df *ABS*	00000000 altera_avalon_jtag_uart_write.c
00000000 l    df *ABS*	00000000 alt_alarm_start.c
00000000 l    df *ABS*	00000000 alt_dcache_flush_all.c
00000000 l    df *ABS*	00000000 alt_dev.c
000043a0 l     F .text	0000002c alt_dev_null_write
00000000 l    df *ABS*	00000000 alt_dev_llist_insert.c
00004408 l     F .text	0000004c alt_get_errno
00000000 l    df *ABS*	00000000 alt_do_ctors.c
00000000 l    df *ABS*	00000000 alt_do_dtors.c
00000000 l    df *ABS*	00000000 alt_errno.c
00000000 l    df *ABS*	00000000 alt_icache_flush_all.c
00000000 l    df *ABS*	00000000 alt_iic.c
00000000 l    df *ABS*	00000000 alt_iic_isr_register.c
00000000 l    df *ABS*	00000000 alt_io_redirect.c
000047ac l     F .text	000000dc alt_open_fd
00000000 l    df *ABS*	00000000 alt_release_fd.c
00000000 l    df *ABS*	00000000 alt_tick.c
00000000 l    df *ABS*	00000000 intel_niosv_irq.c
00000000 l    df *ABS*	00000000 mtimer.c
00000000 l    df *ABS*	00000000 lib_a-atexit.o
00000000 l    df *ABS*	00000000 lib_a-clock.o
00000000 l    df *ABS*	00000000 lib_a-exit.o
00000000 l    df *ABS*	00000000 lib_a-fclose.o
00000000 l    df *ABS*	00000000 lib_a-fflush.o
00000000 l    df *ABS*	00000000 lib_a-fgets.o
00000000 l    df *ABS*	00000000 lib_a-findfp.o
00005678 l     F .text	00000040 __fp_lock
000056b8 l     F .text	00000040 __fp_unlock
00000000 l    df *ABS*	00000000 lib_a-fopen.o
00000000 l    df *ABS*	00000000 lib_a-fprintf.o
00000000 l    df *ABS*	00000000 lib_a-freer.o
00000000 l    df *ABS*	00000000 lib_a-fseek.o
00000000 l    df *ABS*	00000000 lib_a-fseeko.o
00000000 l    df *ABS*	00000000 lib_a-fstatr.o
00000000 l    df *ABS*	00000000 lib_a-fwalk.o
00000000 l    df *ABS*	00000000 lib_a-impure.o
0002e760 l     O .rwdata	00000428 impure_data
00000000 l    df *ABS*	00000000 lib_a-lock.o
00000000 l    df *ABS*	00000000 lib_a-makebuf.o
00000000 l    df *ABS*	00000000 lib_a-mallocr.o
00000000 l    df *ABS*	00000000 lib_a-memchr.o
00000000 l    df *ABS*	00000000 lib_a-memcpy.o
00000000 l    df *ABS*	00000000 lib_a-memset.o
00000000 l    df *ABS*	00000000 lib_a-mlock.o
00000000 l    df *ABS*	00000000 lib_a-openr.o
00000000 l    df *ABS*	00000000 lib_a-printf.o
00000000 l    df *ABS*	00000000 lib_a-puts.o
00000000 l    df *ABS*	00000000 lib_a-rand.o
00000000 l    df *ABS*	00000000 lib_a-reent.o
00000000 l    df *ABS*	00000000 lib_a-refill.o
000079dc l     F .text	0000001c lflush
00000000 l    df *ABS*	00000000 lib_a-sbrkr.o
00000000 l    df *ABS*	00000000 lib_a-sscanf.o
00000000 l    df *ABS*	00000000 lib_a-stack_protector.o
00000000 l    df *ABS*	00000000 lib_a-stdio.o
00000000 l    df *ABS*	00000000 lib_a-strlen.o
00000000 l    df *ABS*	00000000 lib_a-svfscanf.o
0002bdcc l     O .rodata	00000022 basefix.0
00000000 l    df *ABS*	00000000 lib_a-sysclose.o
00000000 l    df *ABS*	00000000 lib_a-sysopen.o
00000000 l    df *ABS*	00000000 lib_a-syswrite.o
00000000 l    df *ABS*	00000000 lib_a-time.o
00000000 l    df *ABS*	00000000 lib_a-timesr.o
00000000 l    df *ABS*	00000000 lib_a-vfprintf.o
0000dd6c l     F .text	000000f8 __sbprintf
0002c038 l     O .rodata	00000010 blanks.1
0002c048 l     O .rodata	00000010 zeroes.0
00000000 l    df *ABS*	00000000 lib_a-writer.o
00000000 l    df *ABS*	00000000 lib_a-wsetup.o
00000000 l    df *ABS*	00000000 lib_a-__atexit.o
00000000 l    df *ABS*	00000000 lib_a-__call_atexit.o
0000e230 l     F .text	00000018 register_fini
00000000 l    df *ABS*	00000000 lib_a-closer.o
00000000 l    df *ABS*	00000000 lib_a-fini.o
00000000 l    df *ABS*	00000000 lib_a-flags.o
00000000 l    df *ABS*	00000000 lib_a-fvwrite.o
00000000 l    df *ABS*	00000000 lib_a-gettimeofdayr.o
00000000 l    df *ABS*	00000000 lib_a-isattyr.o
00000000 l    df *ABS*	00000000 lib_a-iswspace.o
00000000 l    df *ABS*	00000000 lib_a-iswspace_l.o
00000000 l    df *ABS*	00000000 lib_a-ldtoa.o
0000e92c l     F .text	00000054 eshdn1
0000e980 l     F .text	00000054 eshup1
0000e9d4 l     F .text	0000008c m16m
0000ea60 l     F .text	000000bc emovo.constprop.0
0000eb1c l     F .text	00000174 enormlz
0000ec90 l     F .text	000001bc eshift.part.0
0000ee4c l     F .text	000000b4 emovi
0000ef00 l     F .text	0000014c ecmp
0000f04c l     F .text	0000049c emdnorm
0000f4e8 l     F .text	00000164 eiremain
0000f64c l     F .text	00000154 e113toe.isra.0
0000f7a0 l     F .text	00000594 ediv
0000fd34 l     F .text	000004d0 emul
0002c204 l     O .rodata	00000014 ezero
0002c218 l     O .rodata	00000104 etens
0002c31c l     O .rodata	00000104 emtens
0002c420 l     O .rodata	00000014 eone
0002c434 l     O .rodata	00000022 bmask
00000000 l    df *ABS*	00000000 lib_a-locale.o
00000000 l    df *ABS*	00000000 lib_a-localeconv.o
00000000 l    df *ABS*	00000000 lib_a-lseekr.o
00000000 l    df *ABS*	00000000 lib_a-malloc.o
00000000 l    df *ABS*	00000000 lib_a-mbrtowc.o
00000000 l    df *ABS*	00000000 lib_a-mbtowc_r.o
00000000 l    df *ABS*	00000000 lib_a-memmove-stub.o
00000000 l    df *ABS*	00000000 lib_a-mprec.o
0002c4a0 l     O .rodata	0000000c p05.0
00000000 l    df *ABS*	00000000 lib_a-readr.o
00000000 l    df *ABS*	00000000 lib_a-realloc.o
00000000 l    df *ABS*	00000000 lib_a-reallocr.o
00000000 l    df *ABS*	00000000 lib_a-s_frexp.o
00000000 l    df *ABS*	00000000 lib_a-sccl.o
00000000 l    df *ABS*	00000000 lib_a-sf_nan.o
00000000 l    df *ABS*	00000000 lib_a-signal.o
00000000 l    df *ABS*	00000000 lib_a-signalr.o
00000000 l    df *ABS*	00000000 lib_a-sprintf.o
00000000 l    df *ABS*	00000000 lib_a-strcmp.o
00000000 l    df *ABS*	00000000 lib_a-strcpy.o
00000000 l    df *ABS*	00000000 lib_a-strncpy.o
00000000 l    df *ABS*	00000000 lib_a-strtod.o
00013cb8 l     F .text	00000084 sulp
0002c6a8 l     O .rodata	00000014 fpi.1
0002c6bc l     O .rodata	00000014 fpinan.0
0002c6d0 l     O .rodata	00000028 tinytens
00000000 l    df *ABS*	00000000 lib_a-strtol.o
00015588 l     F .text	000001f0 _strtol_l.constprop.0
00000000 l    df *ABS*	00000000 lib_a-strtold.o
00000000 l    df *ABS*	00000000 lib_a-strtoll.o
000158d0 l     F .text	000002bc _strtoll_l.constprop.0
00000000 l    df *ABS*	00000000 lib_a-strtorx.o
0002f0fc l     O .rwdata	00000014 fpi0.0
00000000 l    df *ABS*	00000000 lib_a-strtoul.o
00015d58 l     F .text	000001c0 _strtoul_l.constprop.0
00000000 l    df *ABS*	00000000 lib_a-strtoull.o
00015f4c l     F .text	000002bc _strtoull_l.constprop.0
00000000 l    df *ABS*	00000000 lib_a-svfiscanf.o
0002c9c0 l     O .rodata	00000022 basefix.0
00000000 l    df *ABS*	00000000 lib_a-svfprintf.o
0002cbe8 l     O .rodata	00000010 blanks.1
0002cbf8 l     O .rodata	00000010 zeroes.0
00000000 l    df *ABS*	00000000 lib_a-ungetc.o
00000000 l    df *ABS*	00000000 lib_a-vfiprintf.o
0001aea8 l     F .text	000000f4 __sprint_r.part.0
0001c3f0 l     F .text	000000f8 __sbprintf
0002cd74 l     O .rodata	00000010 blanks.1
0002cd84 l     O .rodata	00000010 zeroes.0
00000000 l    df *ABS*	00000000 lib_a-wctomb_r.o
00000000 l    df *ABS*	00000000 lib_a-assert.o
00000000 l    df *ABS*	00000000 lib_a-callocr.o
00000000 l    df *ABS*	00000000 lib_a-errno.o
00000000 l    df *ABS*	00000000 lib_a-fiprintf.o
00000000 l    df *ABS*	00000000 lib_a-fputwc.o
00000000 l    df *ABS*	00000000 lib_a-gdtoa-gethex.o
0001c9bc l     F .text	000000e4 rshift
00000000 l    df *ABS*	00000000 lib_a-gdtoa-hexnan.o
00000000 l    df *ABS*	00000000 lib_a-lnumeric.o
0002f140 l     O .rwdata	00000002 numempty
00000000 l    df *ABS*	00000000 lib_a-s_nan.o
00000000 l    df *ABS*	00000000 lib_a-strncmp.o
00000000 l    df *ABS*	00000000 lib_a-strtodg.o
0001d6ac l     F .text	000000e4 rshift
0001d8a0 l     F .text	0000042c rvOK.constprop.0
0002d004 l     O .rodata	0000005c fivesbits
00000000 l    df *ABS*	00000000 lib_a-svfiprintf.o
0002d1cc l     O .rodata	00000010 blanks.1
0002d1dc l     O .rodata	00000010 zeroes.0
00000000 l    df *ABS*	00000000 lib_a-wbuf.o
00000000 l    df *ABS*	00000000 lib_a-wcrtomb.o
00000000 l    df *ABS*	00000000 lib_a-abort.o
00000000 l    df *ABS*	00000000 libgcc2.c
00000000 l    df *ABS*	00000000 libgcc2.c
00000000 l    df *ABS*	00000000 adddf3.c
00000000 l    df *ABS*	00000000 divdf3.c
00000000 l    df *ABS*	00000000 eqdf2.c
00000000 l    df *ABS*	00000000 gedf2.c
00000000 l    df *ABS*	00000000 ledf2.c
00000000 l    df *ABS*	00000000 muldf3.c
00000000 l    df *ABS*	00000000 subdf3.c
00000000 l    df *ABS*	00000000 unorddf2.c
00000000 l    df *ABS*	00000000 fixdfsi.c
00000000 l    df *ABS*	00000000 fixunsdfsi.c
00000000 l    df *ABS*	00000000 floatsidf.c
00000000 l    df *ABS*	00000000 floatunsidf.c
00000000 l    df *ABS*	00000000 fixdfdi.c
00000000 l    df *ABS*	00000000 floatdidf.c
00000000 l    df *ABS*	00000000 eqtf2.c
00000000 l    df *ABS*	00000000 getf2.c
00000000 l    df *ABS*	00000000 letf2.c
00000000 l    df *ABS*	00000000 multf3.c
00000000 l    df *ABS*	00000000 subtf3.c
00000000 l    df *ABS*	00000000 fixtfsi.c
00000000 l    df *ABS*	00000000 floatsitf.c
00000000 l    df *ABS*	00000000 lesf2.c
00000000 l    df *ABS*	00000000 unordsf2.c
00000000 l    df *ABS*	00000000 extenddftf2.c
00000000 l    df *ABS*	00000000 truncdfsf2.c
00000000 l    df *ABS*	00000000 trunctfdf2.c
00000000 l    df *ABS*	00000000 libgcc2.c
00000000 l    df *ABS*	00000000 libgcc2.c
00000000 l    df *ABS*	00000000 lib_a-w_log10.o
00000000 l    df *ABS*	00000000 lib_a-w_pow.o
00000000 l    df *ABS*	00000000 lib_a-w_sqrt.o
00000000 l    df *ABS*	00000000 lib_a-e_log10.o
00000000 l    df *ABS*	00000000 lib_a-e_pow.o
00000000 l    df *ABS*	00000000 lib_a-e_sqrt.o
00000000 l    df *ABS*	00000000 lib_a-math_err.o
000296c0 l     F .text	00000048 with_errno
00029708 l     F .text	00000054 xflow
00000000 l    df *ABS*	00000000 lib_a-s_fabs.o
00000000 l    df *ABS*	00000000 lib_a-s_finite.o
00000000 l    df *ABS*	00000000 lib_a-s_scalbn.o
00000000 l    df *ABS*	00000000 lib_a-e_log.o
00000000 l    df *ABS*	00000000 alt_close.c
0002a214 l     F .text	0000004c alt_get_errno
00000000 l    df *ABS*	00000000 alt_exit.c
00000000 l    df *ABS*	00000000 alt_fstat.c
0002a380 l     F .text	0000004c alt_get_errno
00000000 l    df *ABS*	00000000 alt_getpid.c
00000000 l    df *ABS*	00000000 alt_gettod.c
00000000 l    df *ABS*	00000000 alt_isatty.c
0002a78c l     F .text	0000004c alt_get_errno
00000000 l    df *ABS*	00000000 alt_kill.c
0002a8d4 l     F .text	0000004c alt_get_errno
00000000 l    df *ABS*	00000000 alt_lseek.c
0002aa14 l     F .text	0000004c alt_get_errno
00000000 l    df *ABS*	00000000 alt_open.c
0002ab40 l     F .text	0000004c alt_get_errno
0002ab8c l     F .text	000000ec alt_file_locked
00000000 l    df *ABS*	00000000 alt_read.c
0002ade0 l     F .text	0000004c alt_get_errno
00000000 l    df *ABS*	00000000 alt_sbrk.c
0002f144 l     O .rwdata	00000004 heap_end
00000000 l    df *ABS*	00000000 alt_times.c
0002afe8 l     F .text	0000004c alt_get_errno
00000000 l    df *ABS*	00000000 alt_write.c
0002b0b8 l     F .text	0000004c alt_get_errno
00000000 l    df *ABS*	00000000 alt_find_dev.c
00000000 l    df *ABS*	00000000 alt_find_file.c
00000000 l    df *ABS*	00000000 alt_get_fd.c
00000000 l    df *ABS*	00000000 lib_a-sysfstat.o
00007ddc g     F .text	0000000c .hidden __stack_chk_fail_local
00012a7c g     F .text	000000ac _mprec_log10
00012b90 g     F .text	00000064 __any_on
0000e8a4 g     F .text	00000058 _isatty_r
0002c578 g     O .rodata	00000028 __mprec_tinytens
00003594 g     F .text	00000088 alt_main
00013b5c g     F .text	000000b0 strcpy
00007828 g     F .text	00000094 cleanup_glue
0002a48c g     F .text	00000020 _getpid
00007680 g     F .text	0000012c _puts_r
00030dcc g     O .bss	00000080 alt_irq
000299ac g     F .text	0000000c fabs
000116b8 g     F .text	00000064 _lseek_r
00028008 g     F .text	000000ac sqrt
0002f148 g       *ABS*	00000000 __flash_rwdata_start
0002459c g     F .text	00000158 .hidden __getf2
0000e2fc g     F .text	000000ac __sflags
00022bfc g     F .text	0000008c .hidden __eqdf2
0000e844 g     F .text	00000060 _gettimeofday_r
00030e88 g     O *ABS*	00000000 __alt_heap_start
00024280 g     F .text	0000024c .hidden __floatdidf
00013894 g     F .text	00000060 _kill_r
000244cc g     F .text	000000d0 .hidden __eqtf2
00007630 g     F .text	00000050 printf
0002f910 g       *ABS*	00000000 __global_pointer$
00030da0 g     O .bss	00000001 __lock___atexit_recursive_mutex
000211a0 g     F .text	00000078 _wcrtomb_r
000133c4 g     F .text	00000090 _signal_r
00000000 g       *ABS*	00000000 __alt_mem_sram
00007ef0 g     F .text	00000078 __sseek
00005778 g     F .text	000001b0 __sinit
00021018 g     F .text	00000174 __swbuf_r
00011594 g     F .text	0000007c _setlocale_r
000056f8 g     F .text	0000006c __sfmoreglue
0002d558 g       *ABS*	00000000 __tls_base
0001ae94 g     F .text	00000014 ungetc
00007580 g     F .text	0000000c __malloc_unlock
0001620c g     F .text	00000018 strtoull_l
0002726c g     F .text	00000194 .hidden __floatsitf
00015284 g     F .text	0000000c _strtod_r
00030d88 g     O .bss	00000001 __lock___arc4random_mutex
00029798 g     F .text	0000005c .hidden __math_divzero
00016390 g     F .text	00000148 _sfread_r
000118cc g     F .text	0000011c memmove
00005764 g     F .text	00000014 _cleanup
000119e8 g     F .text	000000a8 _Balloc
00030dbc g     O .bss	00000004 __stack_chk_guard
00022c88 g     F .text	00000104 .hidden __gtdf2
0002f13c g     O .rwdata	00000004 __atexit_recursive_mutex
0001c678 g     F .text	0000000c __errno
00006800 g     F .text	00000004 __retarget_lock_close
00000000 g     F .entry	00000004 __reset
00011698 g     F .text	00000008 __localeconv_l
00000020 g       *ABS*	00000000 __flash_exceptions_start
00006640 g     F .text	00000060 _fstat_r
00030db8 g     O .bss	00000004 errno
00015870 g     F .text	00000060 strtold
00007e60 g     F .text	00000008 __seofread
00030d64 g     O .bss	00000004 alt_argv
00005654 g     F .text	00000018 fgets
0002e5e0 g     O .rwdata	00000180 alt_fd_list
0002b208 g     F .text	00000120 alt_find_dev
0000b13c g     F .text	00000008 _times_r
000072f4 g     F .text	000001a4 memcpy
0001d350 g     F .text	00000288 __hexnan
000019dc g     F .text	00000090 removeFirstSamples
000297f4 g     F .text	00000094 .hidden __math_invalid
0000566c g     F .text	0000000c _cleanup_r
00018130 g     F .text	00002a34 _svfprintf_r
00024010 g     F .text	000000b8 .hidden __floatsidf
00004d98 g     F .text	000000ac alt_niosv_timer_sc_isr
00004888 g     F .text	00000078 alt_io_redirect
00022d8c g     F .text	00000100 .hidden __ltdf2
00015b90 g     F .text	00000018 strtoll_l
000077ac g     F .text	00000010 puts
000117bc g     F .text	0000009c mbrtowc
0002b548 g       *ABS*	00000000 __fini_array_end
000129d4 g     F .text	000000a8 __ratio
00003d84 g     F .text	0000022c altera_avalon_jtag_uart_read
0001171c g     F .text	00000010 malloc
000075f0 g     F .text	00000040 _printf_r
000246f4 g     F .text	00000154 .hidden __letf2
00013454 g     F .text	000000c4 _raise_r
0002a3cc g     F .text	000000c0 _fstat
0000e8fc g     F .text	00000008 iswspace
0001c524 g     F .text	00000058 __assert_func
0002c4b0 g     O .rodata	000000c8 __mprec_tens
000001b4 g     F .exceptions	00000108 handle_trap
00015ba8 g     F .text	00000018 strtoll
00027400 g     F .text	000000d4 .hidden __lesf2
00030dc4 g     O .bss	00000008 alt_timezone
00023f9c g     F .text	00000074 .hidden __fixunsdfsi
00030db4 g     O .bss	00000004 __malloc_top_pad
00016324 g     F .text	0000006c __ssrefill_r
000138f4 g     F .text	00000004 _getpid_r
0000056c g     F .text	00000234 performDWT
00015f34 g     F .text	00000018 strtoul
00030d6c g     O .bss	00000004 __dso_handle
000116a0 g     F .text	0000000c _localeconv_r
00016208 g     F .text	00000004 _strtoull_r
00011e8c g     F .text	000000b0 __i2b
0000e3a8 g     F .text	0000049c __sfvwrite_r
00013518 g     F .text	000000e0 __sigtramp_r
00015814 g     F .text	0000005c strtold_l
00007bc4 g     F .text	00000058 _sbrk_r
000003e4 g     F .text	000000d8 createModifiedSignal
00012bf4 g     F .text	00000064 _read_r
000280b4 g     F .text	000001bc __ieee754_log10
0002f120 g     O .rwdata	00000004 alt_max_fd
00004f10 g     F .text	00000178 _fclose_r
00001384 g     F .text	000001cc calculatePRD
000053c4 g     F .text	000000cc fflush
00030db0 g     O .bss	00000004 __malloc_max_sbrked_mem
000018c8 g     F .text	00000114 calculateMSE
00007ffc g     F .text	0000306c __ssvfscanf_r
00021bb4 g     F .text	000008c8 .hidden __adddf3
00007de8 g     F .text	0000001c __stack_chk_init
00012760 g     F .text	0000011c __b2d
00030d94 g     O .bss	00000001 __lock___env_recursive_mutex
0002175c g     F .text	00000458 .hidden __umoddi3
0002a7d8 g     F .text	000000fc _isatty
00030da8 g     O .bss	00000001 __lock___sinit_recursive_mutex
0002d32c g     O .rodata	00000004 _global_impure_ptr
00012c6c g     F .text	00000558 _realloc_r
00030e88 g       *ABS*	00000000 __bss_end
00004630 g     F .text	0000017c alt_iic_isr_register
0001577c g     F .text	00000018 strtol_l
00004a0c g     F .text	00000160 alt_tick
0002ce0c g     O .rodata	00000100 __hexdig
000212c4 g     F .text	00000498 .hidden __udivdi3
0001c7fc g     F .text	000000cc _fputwc_r
0002c5a0 g     O .rodata	00000028 __mprec_bigtens
00011c00 g     F .text	00000134 __s2b
000010e0 g     F .text	000002a4 addGaussianNoise
000212ac g     F .text	00000018 abort
0002ac78 g     F .text	00000168 _open
000240c8 g     F .text	000000c4 .hidden __floatunsidf
0002af34 g     F .text	000000b4 _sbrk
00012450 g     F .text	00000058 __mcmp
00007d44 g     F .text	00000098 __stack_chk_fail
0001d790 g     F .text	00000110 increment
0002d558 g       *ABS*	00000000 __tbss_start
00004e44 g     F .text	0000003c alt_niosv_mtimecmp_interrupt_init
00005ab4 g     F .text	00000030 __fp_lock_all
00004974 g     F .text	00000098 alt_alarm_stop
00015794 g     F .text	00000018 strtol
00006168 g     F .text	000004c0 _fseeko_r
000000c0 g     F .exceptions	000000f4 alt_irq_handler
0002e5b8 g     O .rwdata	00000028 alt_dev_null
0000e2a0 g     F .text	0000005c __libc_fini_array
00013d3c g     F .text	00001548 _strtod_l
0001d30c g     F .text	00000044 __match
0001dd08 g     F .text	00000104 set_ones
0002b034 g     F .text	00000084 _times
00004c4c g     F .text	00000084 alt_niosv_mtime_get
000078bc g     F .text	00000120 _reclaim_reent
00004358 g     F .text	00000048 alt_dcache_flush_all
00011d34 g     F .text	00000078 __hi0bits
00023f18 g     F .text	00000084 .hidden __fixdfsi
00030d98 g     O .bss	00000001 __lock___malloc_recursive_mutex
000152a8 g     F .text	0000001c strtod
0002f148 g       *ABS*	00000000 __ram_rwdata_end
00015cc0 g     F .text	00000098 _strtorx_l
0002f118 g     O .rwdata	00000008 alt_dev_list
0000b0c4 g     F .text	00000018 write
000157ac g     F .text	00000068 _strtold_r
00004c28 g     F .text	00000024 alt_timestamp_freq
000016f8 g     F .text	000001d0 calculateSNRimp
0002d558 g       *ABS*	00000000 __ram_rodata_end
0002b52c g     F .text	00000014 fstat
00005cbc g     F .text	0000004c fprintf
00022d8c g     F .text	00000100 .hidden __ledf2
00027170 g     F .text	000000fc .hidden __fixtfsi
00029784 g     F .text	00000014 .hidden __math_oflow
000152c4 g     F .text	00000160 strtof_l
00012170 g     F .text	00000150 __pow5mult
00030d44 g     O .bss	00000004 end2
00030e88 g     O *ABS*	00000004 end
000043cc g     F .text	0000003c alt_dev_reg
00006824 g     F .text	00000004 __retarget_lock_release_recursive
00006628 g     F .text	00000018 fseeko
00015bc0 g     F .text	00000100 ULtox
00006150 g     F .text	00000018 fseek
00006818 g     F .text	00000008 __retarget_lock_try_acquire_recursive
00003864 g     F .text	000000c0 altera_avalon_jtag_uart_init
000298ec g     F .text	000000c0 .hidden __math_check_oflow
0007a120 g       *ABS*	00000000 __alt_stack_pointer
00029770 g     F .text	00000014 .hidden __math_may_uflow
00027d0c g     F .text	00000088 .hidden __clzsi2
00003fb0 g     F .text	0000023c altera_avalon_jtag_uart_write
00005a84 g     F .text	0000000c __sfp_lock_acquire
00007230 g     F .text	000000c4 memchr
000138f8 g     F .text	0000006c _sprintf_r
00005e44 g     F .text	00000308 _free_r
00011610 g     F .text	0000000c __locale_mb_cur_max
0000e0f4 g     F .text	0000013c __call_exitprocs
0001623c g     F .text	000000e8 _sungetc_r
000002bc g     F .text	00000128 readECGDataFromCSV
0002f134 g     O .rwdata	00000004 __malloc_sbrk_base
00003408 g     F .text	000000bc _start
00030d40 g     O .bss	00000004 start2
00030d70 g     O .bss	00000004 _alt_tick_rate
00015b8c g     F .text	00000004 _strtoll_r
00006810 g     F .text	00000008 __retarget_lock_try_acquire
000077d0 g     F .text	00000058 rand
0002aa60 g     F .text	000000e0 _lseek
000122c0 g     F .text	00000190 __lshift
000246f4 g     F .text	00000154 .hidden __lttf2
00030d78 g     O .bss	00000008 _alt_nticks
000136bc g     F .text	00000098 signal
000244cc g     F .text	000000d0 .hidden __netf2
00004d2c g     F .text	0000006c alt_niosv_mtimecmp_get
00003654 g     F .text	0000009c alt_sys_init
0001fc94 g     F .text	000001c8 __ssprint_r
0000758c g     F .text	00000064 _open_r
0002d558 g       *ABS*	00000000 __tdata_source
0000e00c g     F .text	000000e8 __register_exitproc
0001d5f4 g     F .text	000000b8 strncmp
0001151c g     F .text	00000078 _ldcheck
0001de0c g     F .text	00001e88 _strtodg_l
00011f3c g     F .text	00000234 __multiply
00028270 g     F .text	000011a8 __ieee754_pow
00003c18 g     F .text	0000006c altera_avalon_jtag_uart_close
00027e78 g     F .text	00000190 pow
0002d558 g       *ABS*	00000000 __ram_rwdata_start
00013c0c g     F .text	000000ac strncpy
0002b5a0 g       *ABS*	00000000 __ram_rodata_start
00030e4c g     O .bss	00000028 __malloc_current_mallinfo
0001287c g     F .text	00000158 __d2b
00027d94 g     F .text	000000e4 log10
00030d80 g     O .bss	00000008 alt_niosv_timestamp_offset
00012c58 g     F .text	00000014 realloc
00030d5c g     O .bss	00000004 alt_niosv_timer_interrupt_handler
00015f18 g     F .text	00000004 _strtoul_r
000036f0 g     F .text	00000064 altera_avalon_jtag_uart_read_fd
0002b464 g     F .text	000000c8 alt_get_fd
00027520 g     F .text	00000260 .hidden __extenddftf2
0000e248 g     F .text	00000058 _close_r
00030d48 g     O .bss	00000008 cpu_time_used2
000007a0 g     F .text	000003b8 performSingleLevelReconstruction
000037b8 g     F .text	00000054 altera_avalon_jtag_uart_close_fd
00030e88 g       *ABS*	00000000 __alt_stack_base
0000380c g     F .text	00000058 altera_avalon_jtag_uart_ioctl_fd
00006804 g     F .text	00000004 __retarget_lock_close_recursive
00007c1c g     F .text	00000090 sscanf
0000dec8 g     F .text	00000144 __swsetup_r
0002247c g     F .text	00000780 .hidden __divdf3
00005928 g     F .text	0000015c __sfp
00012b28 g     F .text	00000068 __copybits
0002eb88 g     O .rwdata	00000408 __malloc_av_
00005aa8 g     F .text	0000000c __sinit_lock_release
00022e8c g     F .text	00000724 .hidden __muldf3
00007e04 g     F .text	0000005c __sread
0002b328 g     F .text	0000013c alt_find_file
00004454 g     F .text	000000a8 alt_dev_llist_insert
00007574 g     F .text	0000000c __malloc_lock
00005c84 g     F .text	00000038 _fprintf_r
0002b548 g       *ABS*	00000000 __fini_array_start
000052e4 g     F .text	000000e0 _fflush_r
0001c590 g     F .text	000000e8 _calloc_r
00016224 g     F .text	00000018 strtoull
0000680c g     F .text	00000004 __retarget_lock_acquire_recursive
00005c70 g     F .text	00000014 fopen
00030d38 g       *ABS*	00000000 __bss_start
0002d558 g       *ABS*	00000000 __tdata_start
0002d558 g       *ABS*	00000000 __tdata_end
00007498 g     F .text	000000dc memset
00001b34 g     F .text	000018d4 main
00030d68 g     O .bss	00000004 alt_envp
00030dac g     O .bss	00000004 __malloc_max_total_mem
00003754 g     F .text	00000064 altera_avalon_jtag_uart_write_fd
000067fc g     F .text	00000004 __retarget_lock_init_recursive
0002118c g     F .text	00000014 __swbuf
000077bc g     F .text	00000014 srand
00027400 g     F .text	000000d4 .hidden __ltsf2
00001550 g     F .text	000001a8 calculateSNRout
00007f68 g     F .text	00000008 __sclose
0007a120 g       *ABS*	00000000 __alt_heap_limit
00005088 g     F .text	00000010 fclose
00015778 g     F .text	00000004 _strtol_r
00027780 g     F .text	000001e8 .hidden __truncdfsf2
00004b90 g     F .text	00000040 alt_timestamp_start
0002b548 g       *ABS*	00000000 __init_array_end
00006a90 g     F .text	000007a0 _malloc_r
0001c4f4 g     F .text	00000030 __ascii_wctomb
0000b0dc g     F .text	00000060 time
0002f124 g     O .rwdata	00000004 alt_errno
0001c684 g     F .text	00000038 _fiprintf_r
0001ab64 g     F .text	000000cc __submore
00013754 g     F .text	00000060 _init_signal
000066a0 g     F .text	000000a4 _fwalk
00005490 g     F .text	000001c4 _fgets_r
00011858 g     F .text	0000000c _mbtowc_r
00000b58 g     F .text	00000408 applyADTF
00005d08 g     F .text	0000013c _malloc_trim_r
000299b8 g     F .text	00000018 finite
00029888 g     F .text	00000064 .hidden __math_check_uflow
000139e0 g     F .text	0000017c strcmp
0002b5a0 g       *ABS*	00000000 __flash_rodata_start
0001c3d8 g     F .text	00000018 vfiprintf
000067f8 g     F .text	00000004 __retarget_lock_init
00015f1c g     F .text	00000018 strtoul_l
00024848 g     F .text	000011ac .hidden __multf3
00022bfc g     F .text	0000008c .hidden __nedf2
0000361c g     F .text	00000038 alt_irq_init
00004900 g     F .text	00000074 alt_release_fd
00013964 g     F .text	0000007c sprintf
000004bc g     F .text	000000b0 saveToCSV
0002d22c g     O .rodata	00000100 .hidden __clz_tab
00030dc0 g     O .bss	00000004 _PathLocale
0002418c g     F .text	000000f4 .hidden __fixdfdi
00015424 g     F .text	00000164 strtof
00015290 g     F .text	00000018 strtod_l
00004e80 g     F .text	00000014 atexit
0000de64 g     F .text	00000064 _write_r
0000e904 g     F .text	00000028 iswspace_l
0001161c g     F .text	0000007c setlocale
0001335c g     F .text	0000000c nanf
00001a6c g     F .text	000000c8 decalerGauche
0002f130 g     O .rwdata	00000004 _impure_ptr
00030d60 g     O .bss	00000004 alt_argc
000299d0 g     F .text	000001d4 scalbn
00005098 g     F .text	0000024c __sflush_r
0001173c g     F .text	00000080 _mbrtowc_r
0000455c g     F .text	00000060 _do_dtors
00029ba4 g     F .text	00000670 __ieee754_log
0000614c g     F .text	00000004 _fseek_r
0002459c g     F .text	00000158 .hidden __gttf2
0001fe5c g     F .text	000011bc _svfiprintf_r
000079f8 g     F .text	000001cc __srefill_r
00030d50 g     O .bss	00000008 cpu_time_used
00011864 g     F .text	00000068 __ascii_mbtowc
000259f4 g     F .text	0000177c .hidden __subtf3
000126f8 g     F .text	00000068 __ulp
00005ae4 g     F .text	00000030 __fp_unlock_all
0002cf0c g     O .rodata	0000000c _C_numeric_locale
0002f110 g     O .rwdata	00000008 alt_fs_list
00030e78 g     O .bss	00000010 alt_resettime
0001d5e0 g     F .text	00000014 nan
000164d8 g     F .text	00001c58 __ssvfiscanf_r
00000020 g       *ABS*	00000000 __ram_exceptions_start
000116ac g     F .text	0000000c localeconv
00004bd0 g     F .text	00000058 alt_timestamp
00029418 g     F .text	000002a8 __ieee754_sqrt
000069b8 g     F .text	000000d8 __swhatbuf_r
000045dc g     F .text	00000054 alt_ic_isr_register
00007cac g     F .text	00000098 _sscanf_r
00000020 g       .exceptions	00000000 trap_vector
0002b104 g     F .text	00000104 _write
0002f148 g       *ABS*	00000000 _edata
00030e88 g       *ABS*	00000000 _end
000274d4 g     F .text	0000004c .hidden __unordsf2
0001c708 g     F .text	000000f4 __fputwc
000002bc g       *ABS*	00000000 __ram_exceptions_end
00030d9c g     O .bss	00000001 __lock___at_quick_exit_mutex
00003c84 g     F .text	00000100 altera_avalon_jtag_uart_ioctl
00000f60 g     F .text	00000180 correctHighestPeaks
00004b6c g     F .text	00000024 intel_niosv_irq_init
00007e68 g     F .text	00000088 __swrite
0002f138 g     O .rwdata	00000004 __malloc_trim_threshold
00004edc g     F .text	00000034 exit
0001c6bc g     F .text	0000004c fiprintf
0001afb4 g     F .text	00001424 _vfiprintf_r
00006744 g     F .text	000000b4 _fwalk_reent
000124a8 g     F .text	00000250 __mdiff
0002975c g     F .text	00000014 .hidden __math_uflow
0002a920 g     F .text	000000f4 _kill
0007a120 g       *ABS*	00000000 __alt_data_end
0002d558 g       *ABS*	00000000 __tbss_end
00005a90 g     F .text	0000000c __sfp_lock_release
00030d38 g     O .bss	00000004 start
00010204 g     F .text	00001318 _ldtoa_r
00013274 g     F .text	000000e8 __sccl
0002a4ac g     F .text	000002e0 _gettimeofday
0002c090 g     O .rodata	00000101 _ctype_
0002ae2c g     F .text	00000108 _read
0002b540 g       *ABS*	00000000 __init_array_start
00006808 g     F .text	00000004 __retarget_lock_acquire
00023ec4 g     F .text	00000054 .hidden __unorddf2
00006820 g     F .text	00000004 __retarget_lock_release
00005b14 g     F .text	0000015c _fopen_r
0002a340 g     F .text	00000040 _exit
000041ec g     F .text	0000016c alt_alarm_start
00030d8c g     O .bss	00000001 __lock___dd_hash_mutex
00006828 g     F .text	00000190 __smakebuf_r
00030d90 g     O .bss	00000001 __lock___tz_mutex
00007f70 g     F .text	0000008c strlen
00013368 g     F .text	0000005c _init_signal_r
0000b078 g     F .text	0000004c open
00022c88 g     F .text	00000104 .hidden __gedf2
0001caa0 g     F .text	0000086c __gethex
00004e94 g     F .text	00000048 clock
0001c57c g     F .text	00000014 __assert
0001af9c g     F .text	00000018 __sprint_r
000045bc g     F .text	00000020 alt_icache_flush_all
0001d5d8 g     F .text	00000008 __numeric_load_locale
00004cd0 g     F .text	0000005c alt_niosv_mtimecmp_set
0001c4e8 g     F .text	0000000c _wctomb_r
000235b0 g     F .text	00000914 .hidden __subdf3
0000b144 g     F .text	00002c10 _vfprintf_r
00011dac g     F .text	000000e0 __lo0bits
0002f128 g     O .rwdata	00000008 alt_alarm_list
0001ac30 g     F .text	00000264 _ungetc_r
000044fc g     F .text	00000060 _do_ctors
000137b4 g     F .text	000000e0 __sigtramp
00021218 g     F .text	00000094 wcrtomb
0001dccc g     F .text	0000003c decrement
000131c4 g     F .text	000000b0 frexp
0000b068 g     F .text	00000010 close
0002ef90 g     O .rwdata	0000016c __global_locale
00003528 g     F .text	0000006c alt_load
0000dd54 g     F .text	00000018 vfprintf
00030d58 g     O .bss	00000004 alt_niosv_software_interrupt_handler
00027968 g     F .text	000003a4 .hidden __trunctfdf2
00030da4 g     O .bss	00000001 __lock___sfp_recursive_mutex
0001c8c8 g     F .text	000000f4 fputwc
0002a260 g     F .text	000000e0 _close
000135f8 g     F .text	000000c4 raise
0001172c g     F .text	00000010 free
00005a9c g     F .text	0000000c __sinit_lock_acquire
00011ab4 g     F .text	0000014c __multadd
00011a90 g     F .text	00000024 _Bfree



Disassembly of section .entry:

00000000 <__reset>:
 * Jump to the _start entry point in the .text section if reset code
 * is allowed or if optimizing for RTL simulation.
 */

    /* Jump to the _start entry point in the .text section. */
    tail _start
   0:	4080306f          	j	3408 <_start>
	...

Disassembly of section .exceptions:

00000020 <trap_vector>:
    /* Save caller-saved registers on the stack */

#if __riscv_flen == 32 // rv32if
    addi sp, sp, -36 * 4
#elif ALT_CPU_NUM_GPR == 32 // rv32i
    addi sp, sp, -16 * 4
  20:	fc010113          	addi	sp,sp,-64
#else // rv32e (16-bit)
    addi sp, sp, -10 * 4
#endif

    /* rv32e (16-bit), rv32i and rv32if */
    sw ra,  0 * 4(sp)
  24:	00112023          	sw	ra,0(sp)
    sw t0,  1 * 4(sp)
  28:	00512223          	sw	t0,4(sp)
    sw t1,  2 * 4(sp)
  2c:	00612423          	sw	t1,8(sp)
    sw t2,  3 * 4(sp)
  30:	00712623          	sw	t2,12(sp)
    sw a0,  4 * 4(sp)
  34:	00a12823          	sw	a0,16(sp)
    sw a1,  5 * 4(sp)
  38:	00b12a23          	sw	a1,20(sp)
    sw a2,  6 * 4(sp)
  3c:	00c12c23          	sw	a2,24(sp)
    sw a3,  7 * 4(sp)
  40:	00d12e23          	sw	a3,28(sp)
    sw a4,  8 * 4(sp)
  44:	02e12023          	sw	a4,32(sp)
    sw a5,  9 * 4(sp)
  48:	02f12223          	sw	a5,36(sp)

    /* rv32i and rv32if */
#if ALT_CPU_NUM_GPR == 32 
    sw a6, 10 * 4(sp)
  4c:	03012423          	sw	a6,40(sp)
    sw a7, 11 * 4(sp)
  50:	03112623          	sw	a7,44(sp)
    sw t3, 12 * 4(sp)
  54:	03c12823          	sw	t3,48(sp)
    sw t4, 13 * 4(sp)
  58:	03d12a23          	sw	t4,52(sp)
    sw t5, 14 * 4(sp)
  5c:	03e12c23          	sw	t5,56(sp)
    sw t6, 15 * 4(sp)
  60:	03f12e23          	sw	t6,60(sp)
    fsw fa6, 34 * 4(sp)
    fsw fa7, 35 * 4(sp)
#endif
    
    /* Call handle_trap to dispatch the correct handler, if available */
    csrr a0, mcause
  64:	34202573          	csrr	a0,mcause
    csrr a1, mepc
  68:	341025f3          	csrr	a1,mepc
    csrr a2, mtval
  6c:	34302673          	csrr	a2,mtval
    jal handle_trap
  70:	144000ef          	jal	ra,1b4 <handle_trap>
    csrw mepc, a0
  74:	34151073          	csrw	mepc,a0

    /* Restore caller-saved registers */

    /* rv32e (16-bit), rv32i and rv32if */
    lw ra,  0 * 4(sp)
  78:	00012083          	lw	ra,0(sp)
    lw t0,  1 * 4(sp)
  7c:	00412283          	lw	t0,4(sp)
    lw t1,  2 * 4(sp)
  80:	00812303          	lw	t1,8(sp)
    lw t2,  3 * 4(sp)
  84:	00c12383          	lw	t2,12(sp)
    lw a0,  4 * 4(sp)
  88:	01012503          	lw	a0,16(sp)
    lw a1,  5 * 4(sp)
  8c:	01412583          	lw	a1,20(sp)
    lw a2,  6 * 4(sp)
  90:	01812603          	lw	a2,24(sp)
    lw a3,  7 * 4(sp)
  94:	01c12683          	lw	a3,28(sp)
    lw a4,  8 * 4(sp)
  98:	02012703          	lw	a4,32(sp)
    lw a5,  9 * 4(sp)
  9c:	02412783          	lw	a5,36(sp)

    /* rv32i and rv32if */
#if ALT_CPU_NUM_GPR == 32	
    lw a6, 10 * 4(sp)
  a0:	02812803          	lw	a6,40(sp)
    lw a7, 11 * 4(sp)
  a4:	02c12883          	lw	a7,44(sp)
    lw t3, 12 * 4(sp)
  a8:	03012e03          	lw	t3,48(sp)
    lw t4, 13 * 4(sp)
  ac:	03412e83          	lw	t4,52(sp)
    lw t5, 14 * 4(sp)
  b0:	03812f03          	lw	t5,56(sp)
    lw t6, 15 * 4(sp)
  b4:	03c12f83          	lw	t6,60(sp)
#endif

#if __riscv_flen == 32 // rv32if
    addi sp, sp, 36 * 4
#elif ALT_CPU_NUM_GPR == 32 // rv32i
	addi sp, sp, 16 * 4
  b8:	04010113          	addi	sp,sp,64
    lw s0, 0(sp)
    lw s1, 4(sp)
    addi sp, sp, 8
#endif

    mret
  bc:	30200073          	mret

000000c0 <alt_irq_handler>:
 * This means that if there is never a call to alt_irq_register() then
 * this function will not get linked in to the executable. This is acceptable
 * since if no handler is ever registered, then an interrupt can never occur.
 */
void alt_irq_handler (void)
{
  c0:	fd010113          	addi	sp,sp,-48
  c4:	02112623          	sw	ra,44(sp)
  c8:	02812423          	sw	s0,40(sp)
  cc:	03010413          	addi	s0,sp,48
    alt_u32 i;

    /*
     * Notify the operating system that we are at interrupt level.
     */  
    ALT_OS_INT_ENTER();
  d0:	00000013          	nop
{
#if ALT_HAS_IRQ_SUPPORT
    alt_u32 active;
    alt_u32 enabled;

    NIOSV_READ_CSR(NIOSV_MIP_CSR, active);
  d4:	344027f3          	csrr	a5,mip
  d8:	fef42023          	sw	a5,-32(s0)
    NIOSV_READ_CSR(NIOSV_MIE_CSR, enabled);
  dc:	304027f3          	csrr	a5,mie
  e0:	fef42223          	sw	a5,-28(s0)

    // Since this is used by alt_irq_handler, we want to only process the upper 16-bits
    // --> the interrupt lines connected via Platform Designer...
    return (active & enabled) >> 16;
  e4:	fe042703          	lw	a4,-32(s0)
  e8:	fe442783          	lw	a5,-28(s0)
  ec:	00f777b3          	and	a5,a4,a5
  f0:	0107d793          	srli	a5,a5,0x10
     * reduced by finding out which interrupts are pending as late as possible.
     * Consider the case where the high priority interupt is asserted during
     * the interrupt entry sequence for a lower priority interrupt to see why
     * this is the case.
     */
    active = alt_irq_pending();
  f4:	fcf42a23          	sw	a5,-44(s0)

    do
    {
        i = 0;
  f8:	fc042e23          	sw	zero,-36(s0)
        mask = 1;
  fc:	00100793          	li	a5,1
 100:	fcf42c23          	sw	a5,-40(s0)
         * called to clear the interrupt condition.
         */

        do
        {
            if (active & mask)
 104:	fd442703          	lw	a4,-44(s0)
 108:	fd842783          	lw	a5,-40(s0)
 10c:	00f777b3          	and	a5,a4,a5
 110:	06078263          	beqz	a5,174 <alt_irq_handler+0xb4>
            {
                alt_irq[i].handler(alt_irq[i].context); 
 114:	000317b7          	lui	a5,0x31
 118:	dcc78713          	addi	a4,a5,-564 # 30dcc <alt_irq>
 11c:	fdc42783          	lw	a5,-36(s0)
 120:	00379793          	slli	a5,a5,0x3
 124:	00f707b3          	add	a5,a4,a5
 128:	0007a703          	lw	a4,0(a5)
 12c:	000317b7          	lui	a5,0x31
 130:	dcc78693          	addi	a3,a5,-564 # 30dcc <alt_irq>
 134:	fdc42783          	lw	a5,-36(s0)
 138:	00379793          	slli	a5,a5,0x3
 13c:	00f687b3          	add	a5,a3,a5
 140:	0047a783          	lw	a5,4(a5)
 144:	00078513          	mv	a0,a5
 148:	000700e7          	jalr	a4
                break;
 14c:	00000013          	nop
    NIOSV_READ_CSR(NIOSV_MIP_CSR, active);
 150:	344027f3          	csrr	a5,mip
 154:	fef42423          	sw	a5,-24(s0)
    NIOSV_READ_CSR(NIOSV_MIE_CSR, enabled);
 158:	304027f3          	csrr	a5,mie
 15c:	fef42623          	sw	a5,-20(s0)
    return (active & enabled) >> 16;
 160:	fe842703          	lw	a4,-24(s0)
 164:	fec42783          	lw	a5,-20(s0)
 168:	00f777b3          	and	a5,a4,a5
 16c:	0107d793          	srli	a5,a5,0x10
 170:	0200006f          	j	190 <alt_irq_handler+0xd0>
            }
            
            mask <<= 1;
 174:	fd842783          	lw	a5,-40(s0)
 178:	00179793          	slli	a5,a5,0x1
 17c:	fcf42c23          	sw	a5,-40(s0)
            i++;
 180:	fdc42783          	lw	a5,-36(s0)
 184:	00178793          	addi	a5,a5,1
 188:	fcf42e23          	sw	a5,-36(s0)
            if (active & mask)
 18c:	f79ff06f          	j	104 <alt_irq_handler+0x44>
            
        } while (1);

        active = alt_irq_pending();
 190:	fcf42a23          	sw	a5,-44(s0)
    
    } while (active);
 194:	fd442783          	lw	a5,-44(s0)
 198:	f60790e3          	bnez	a5,f8 <alt_irq_handler+0x38>

    /*
     * Notify the operating system that interrupt processing is complete.
     */ 

    ALT_OS_INT_EXIT();
 19c:	00000013          	nop
}
 1a0:	00000013          	nop
 1a4:	02c12083          	lw	ra,44(sp)
 1a8:	02812403          	lw	s0,40(sp)
 1ac:	03010113          	addi	sp,sp,48
 1b0:	00008067          	ret

000001b4 <handle_trap>:
{
 1b4:	fd010113          	addi	sp,sp,-48
 1b8:	02112623          	sw	ra,44(sp)
 1bc:	02812423          	sw	s0,40(sp)
 1c0:	03010413          	addi	s0,sp,48
 1c4:	fca42e23          	sw	a0,-36(s0)
 1c8:	fcb42c23          	sw	a1,-40(s0)
 1cc:	fcc42a23          	sw	a2,-44(s0)
    is_irq = (cause & NIOSV_MCAUSE_INTERRUPT_MASK);
 1d0:	fdc42703          	lw	a4,-36(s0)
 1d4:	800007b7          	lui	a5,0x80000
 1d8:	00f777b3          	and	a5,a4,a5
 1dc:	fef42423          	sw	a5,-24(s0)
    exception_code = (cause & ~NIOSV_MCAUSE_INTERRUPT_MASK);
 1e0:	fdc42703          	lw	a4,-36(s0)
 1e4:	800007b7          	lui	a5,0x80000
 1e8:	fff7c793          	not	a5,a5
 1ec:	00f777b3          	and	a5,a4,a5
 1f0:	fef42623          	sw	a5,-20(s0)
    if (is_irq) {
 1f4:	fe842783          	lw	a5,-24(s0)
 1f8:	08078863          	beqz	a5,288 <handle_trap+0xd4>
        switch (exception_code) {
 1fc:	fec42703          	lw	a4,-20(s0)
 200:	00300793          	li	a5,3
 204:	04f70063          	beq	a4,a5,244 <handle_trap+0x90>
 208:	fec42703          	lw	a4,-20(s0)
 20c:	00700793          	li	a5,7
 210:	06f71263          	bne	a4,a5,274 <handle_trap+0xc0>
                if (alt_niosv_timer_interrupt_handler) {
 214:	000317b7          	lui	a5,0x31
 218:	d5c7a783          	lw	a5,-676(a5) # 30d5c <alt_niosv_timer_interrupt_handler>
 21c:	06078a63          	beqz	a5,290 <handle_trap+0xdc>
                    ALT_OS_INT_ENTER();
 220:	00000013          	nop
                    alt_niosv_timer_interrupt_handler(cause, epc, tval);
 224:	000317b7          	lui	a5,0x31
 228:	d5c7a783          	lw	a5,-676(a5) # 30d5c <alt_niosv_timer_interrupt_handler>
 22c:	fd442603          	lw	a2,-44(s0)
 230:	fd842583          	lw	a1,-40(s0)
 234:	fdc42503          	lw	a0,-36(s0)
 238:	000780e7          	jalr	a5
                    ALT_OS_INT_EXIT();
 23c:	00000013          	nop
                break;
 240:	0500006f          	j	290 <handle_trap+0xdc>
                if (alt_niosv_software_interrupt_handler) {
 244:	000317b7          	lui	a5,0x31
 248:	d587a783          	lw	a5,-680(a5) # 30d58 <alt_niosv_software_interrupt_handler>
 24c:	04078663          	beqz	a5,298 <handle_trap+0xe4>
                    ALT_OS_INT_ENTER();
 250:	00000013          	nop
                    alt_niosv_software_interrupt_handler(cause, epc, tval);
 254:	000317b7          	lui	a5,0x31
 258:	d587a783          	lw	a5,-680(a5) # 30d58 <alt_niosv_software_interrupt_handler>
 25c:	fd442603          	lw	a2,-44(s0)
 260:	fd842583          	lw	a1,-40(s0)
 264:	fdc42503          	lw	a0,-36(s0)
 268:	000780e7          	jalr	a5
                    ALT_OS_INT_EXIT();
 26c:	00000013          	nop
                break;
 270:	0280006f          	j	298 <handle_trap+0xe4>
                if (exception_code >= 16) {
 274:	fec42703          	lw	a4,-20(s0)
 278:	00f00793          	li	a5,15
 27c:	02e7f263          	bgeu	a5,a4,2a0 <handle_trap+0xec>
                    alt_irq_handler();
 280:	e41ff0ef          	jal	ra,c0 <alt_irq_handler>
                break;
 284:	01c0006f          	j	2a0 <handle_trap+0xec>
            NIOSV_EBREAK();
 288:	00100073          	ebreak
 28c:	0180006f          	j	2a4 <handle_trap+0xf0>
                break;
 290:	00000013          	nop
 294:	0100006f          	j	2a4 <handle_trap+0xf0>
                break;
 298:	00000013          	nop
 29c:	0080006f          	j	2a4 <handle_trap+0xf0>
                break;
 2a0:	00000013          	nop
    return epc;
 2a4:	fd842783          	lw	a5,-40(s0)
}
 2a8:	00078513          	mv	a0,a5
 2ac:	02c12083          	lw	ra,44(sp)
 2b0:	02812403          	lw	s0,40(sp)
 2b4:	03010113          	addi	sp,sp,48
 2b8:	00008067          	ret

Disassembly of section .text:

000002bc <readECGDataFromCSV>:

typedef struct {
    double x_MLII_;
} ECGData;

int readECGDataFromCSV(const char* filename, ECGData data[], int maxSamples) {
     2bc:	f7010113          	addi	sp,sp,-144
     2c0:	08112623          	sw	ra,140(sp)
     2c4:	08812423          	sw	s0,136(sp)
     2c8:	09010413          	addi	s0,sp,144
     2cc:	f6a42e23          	sw	a0,-132(s0)
     2d0:	f6b42c23          	sw	a1,-136(s0)
     2d4:	f6c42a23          	sw	a2,-140(s0)
     2d8:	000317b7          	lui	a5,0x31
     2dc:	dbc7a703          	lw	a4,-580(a5) # 30dbc <__stack_chk_guard>
     2e0:	fee42623          	sw	a4,-20(s0)
     2e4:	00000713          	li	a4,0
    FILE *file = fopen(filename, "r");
     2e8:	0002b7b7          	lui	a5,0x2b
     2ec:	5a078593          	addi	a1,a5,1440 # 2b5a0 <__flash_rodata_start>
     2f0:	f7c42503          	lw	a0,-132(s0)
     2f4:	17d050ef          	jal	ra,5c70 <fopen>
     2f8:	f8a42223          	sw	a0,-124(s0)
    if (!file) {
     2fc:	f8442783          	lw	a5,-124(s0)
     300:	00079c63          	bnez	a5,318 <readECGDataFromCSV+0x5c>
        printf("Failed to open the file\n");
     304:	0002b7b7          	lui	a5,0x2b
     308:	5a478513          	addi	a0,a5,1444 # 2b5a4 <__flash_rodata_start+0x4>
     30c:	4a0070ef          	jal	ra,77ac <puts>
        return -1;
     310:	fff00793          	li	a5,-1
     314:	09c0006f          	j	3b0 <readECGDataFromCSV+0xf4>
    }

    char line[100];
    fgets(line, sizeof(line), file);
     318:	f8840793          	addi	a5,s0,-120
     31c:	f8442603          	lw	a2,-124(s0)
     320:	06400593          	li	a1,100
     324:	00078513          	mv	a0,a5
     328:	32c050ef          	jal	ra,5654 <fgets>
    fgets(line, sizeof(line), file);
     32c:	f8840793          	addi	a5,s0,-120
     330:	f8442603          	lw	a2,-124(s0)
     334:	06400593          	li	a1,100
     338:	00078513          	mv	a0,a5
     33c:	318050ef          	jal	ra,5654 <fgets>

    int i = 0;
     340:	f8042023          	sw	zero,-128(s0)
    while (i < maxSamples && fgets(line, sizeof(line), file) != NULL) {
     344:	0380006f          	j	37c <readECGDataFromCSV+0xc0>
        sscanf(line, "%*[^,], %lf", &data[i].x_MLII_);
     348:	f8042783          	lw	a5,-128(s0)
     34c:	00379793          	slli	a5,a5,0x3
     350:	f7842703          	lw	a4,-136(s0)
     354:	00f707b3          	add	a5,a4,a5
     358:	f8840713          	addi	a4,s0,-120
     35c:	00078613          	mv	a2,a5
     360:	0002b7b7          	lui	a5,0x2b
     364:	5bc78593          	addi	a1,a5,1468 # 2b5bc <__flash_rodata_start+0x1c>
     368:	00070513          	mv	a0,a4
     36c:	0b1070ef          	jal	ra,7c1c <sscanf>
        i++;
     370:	f8042783          	lw	a5,-128(s0)
     374:	00178793          	addi	a5,a5,1
     378:	f8f42023          	sw	a5,-128(s0)
    while (i < maxSamples && fgets(line, sizeof(line), file) != NULL) {
     37c:	f8042703          	lw	a4,-128(s0)
     380:	f7442783          	lw	a5,-140(s0)
     384:	02f75063          	bge	a4,a5,3a4 <readECGDataFromCSV+0xe8>
     388:	f8840793          	addi	a5,s0,-120
     38c:	f8442603          	lw	a2,-124(s0)
     390:	06400593          	li	a1,100
     394:	00078513          	mv	a0,a5
     398:	2bc050ef          	jal	ra,5654 <fgets>
     39c:	00050793          	mv	a5,a0
     3a0:	fa0794e3          	bnez	a5,348 <readECGDataFromCSV+0x8c>
    }

    fclose(file);
     3a4:	f8442503          	lw	a0,-124(s0)
     3a8:	4e1040ef          	jal	ra,5088 <fclose>
    return i;
     3ac:	f8042783          	lw	a5,-128(s0)
}
     3b0:	00078713          	mv	a4,a5
     3b4:	000317b7          	lui	a5,0x31
     3b8:	fec42683          	lw	a3,-20(s0)
     3bc:	dbc7a783          	lw	a5,-580(a5) # 30dbc <__stack_chk_guard>
     3c0:	00f6c7b3          	xor	a5,a3,a5
     3c4:	00000693          	li	a3,0
     3c8:	00078463          	beqz	a5,3d0 <readECGDataFromCSV+0x114>
     3cc:	179070ef          	jal	ra,7d44 <__stack_chk_fail>
     3d0:	00070513          	mv	a0,a4
     3d4:	08c12083          	lw	ra,140(sp)
     3d8:	08812403          	lw	s0,136(sp)
     3dc:	09010113          	addi	sp,sp,144
     3e0:	00008067          	ret

000003e4 <createModifiedSignal>:

void createModifiedSignal(double *originalSignal, double *modifiedSignal, int numSamples, int prependLength) {
     3e4:	fd010113          	addi	sp,sp,-48
     3e8:	02812623          	sw	s0,44(sp)
     3ec:	03010413          	addi	s0,sp,48
     3f0:	fca42e23          	sw	a0,-36(s0)
     3f4:	fcb42c23          	sw	a1,-40(s0)
     3f8:	fcc42a23          	sw	a2,-44(s0)
     3fc:	fcd42823          	sw	a3,-48(s0)
    // Ajouter les 'prependLength' premiers chantillons au dbut du signal modifi.
    for (int i = 0; i < prependLength; i++) {
     400:	fe042423          	sw	zero,-24(s0)
     404:	0400006f          	j	444 <createModifiedSignal+0x60>
        modifiedSignal[i] = originalSignal[i];
     408:	fe842783          	lw	a5,-24(s0)
     40c:	00379793          	slli	a5,a5,0x3
     410:	fdc42703          	lw	a4,-36(s0)
     414:	00f707b3          	add	a5,a4,a5
     418:	fe842703          	lw	a4,-24(s0)
     41c:	00371713          	slli	a4,a4,0x3
     420:	fd842683          	lw	a3,-40(s0)
     424:	00e686b3          	add	a3,a3,a4
     428:	0007a703          	lw	a4,0(a5)
     42c:	0047a783          	lw	a5,4(a5)
     430:	00e6a023          	sw	a4,0(a3)
     434:	00f6a223          	sw	a5,4(a3)
    for (int i = 0; i < prependLength; i++) {
     438:	fe842783          	lw	a5,-24(s0)
     43c:	00178793          	addi	a5,a5,1
     440:	fef42423          	sw	a5,-24(s0)
     444:	fe842703          	lw	a4,-24(s0)
     448:	fd042783          	lw	a5,-48(s0)
     44c:	faf74ee3          	blt	a4,a5,408 <createModifiedSignal+0x24>
    }
    // Ajouter le reste du signal original.
    for (int i = 0; i < numSamples; i++) {
     450:	fe042623          	sw	zero,-20(s0)
     454:	0480006f          	j	49c <createModifiedSignal+0xb8>
        modifiedSignal[i + prependLength] = originalSignal[i];
     458:	fec42783          	lw	a5,-20(s0)
     45c:	00379793          	slli	a5,a5,0x3
     460:	fdc42703          	lw	a4,-36(s0)
     464:	00f707b3          	add	a5,a4,a5
     468:	fec42683          	lw	a3,-20(s0)
     46c:	fd042703          	lw	a4,-48(s0)
     470:	00e68733          	add	a4,a3,a4
     474:	00371713          	slli	a4,a4,0x3
     478:	fd842683          	lw	a3,-40(s0)
     47c:	00e686b3          	add	a3,a3,a4
     480:	0007a703          	lw	a4,0(a5)
     484:	0047a783          	lw	a5,4(a5)
     488:	00e6a023          	sw	a4,0(a3)
     48c:	00f6a223          	sw	a5,4(a3)
    for (int i = 0; i < numSamples; i++) {
     490:	fec42783          	lw	a5,-20(s0)
     494:	00178793          	addi	a5,a5,1
     498:	fef42623          	sw	a5,-20(s0)
     49c:	fec42703          	lw	a4,-20(s0)
     4a0:	fd442783          	lw	a5,-44(s0)
     4a4:	faf74ae3          	blt	a4,a5,458 <createModifiedSignal+0x74>
    }
}
     4a8:	00000013          	nop
     4ac:	00000013          	nop
     4b0:	02c12403          	lw	s0,44(sp)
     4b4:	03010113          	addi	sp,sp,48
     4b8:	00008067          	ret

000004bc <saveToCSV>:

void saveToCSV(const char* filename, double *array, int length) {
     4bc:	fd010113          	addi	sp,sp,-48
     4c0:	02112623          	sw	ra,44(sp)
     4c4:	02812423          	sw	s0,40(sp)
     4c8:	03010413          	addi	s0,sp,48
     4cc:	fca42e23          	sw	a0,-36(s0)
     4d0:	fcb42c23          	sw	a1,-40(s0)
     4d4:	fcc42a23          	sw	a2,-44(s0)
    FILE *file = fopen(filename, "w");
     4d8:	0002b7b7          	lui	a5,0x2b
     4dc:	5c878593          	addi	a1,a5,1480 # 2b5c8 <__flash_rodata_start+0x28>
     4e0:	fdc42503          	lw	a0,-36(s0)
     4e4:	78c050ef          	jal	ra,5c70 <fopen>
     4e8:	fea42623          	sw	a0,-20(s0)
    if (!file) {
     4ec:	fec42783          	lw	a5,-20(s0)
     4f0:	00079a63          	bnez	a5,504 <saveToCSV+0x48>
        printf("Failed to open the file\n");
     4f4:	0002b7b7          	lui	a5,0x2b
     4f8:	5a478513          	addi	a0,a5,1444 # 2b5a4 <__flash_rodata_start+0x4>
     4fc:	2b0070ef          	jal	ra,77ac <puts>
        return;
     500:	05c0006f          	j	55c <saveToCSV+0xa0>
    }

    for (int i = 0; i < length; i++) {
     504:	fe042423          	sw	zero,-24(s0)
     508:	0400006f          	j	548 <saveToCSV+0x8c>
        fprintf(file, "%lf\n", array[i]); // Chaque chantillon est crit sur une nouvelle ligne pour un format CSV standard.
     50c:	fe842783          	lw	a5,-24(s0)
     510:	00379793          	slli	a5,a5,0x3
     514:	fd842703          	lw	a4,-40(s0)
     518:	00f707b3          	add	a5,a4,a5
     51c:	0007a703          	lw	a4,0(a5)
     520:	0047a783          	lw	a5,4(a5)
     524:	00070613          	mv	a2,a4
     528:	00078693          	mv	a3,a5
     52c:	0002b7b7          	lui	a5,0x2b
     530:	5cc78593          	addi	a1,a5,1484 # 2b5cc <__flash_rodata_start+0x2c>
     534:	fec42503          	lw	a0,-20(s0)
     538:	784050ef          	jal	ra,5cbc <fprintf>
    for (int i = 0; i < length; i++) {
     53c:	fe842783          	lw	a5,-24(s0)
     540:	00178793          	addi	a5,a5,1
     544:	fef42423          	sw	a5,-24(s0)
     548:	fe842703          	lw	a4,-24(s0)
     54c:	fd442783          	lw	a5,-44(s0)
     550:	faf74ee3          	blt	a4,a5,50c <saveToCSV+0x50>
    }

    fclose(file);
     554:	fec42503          	lw	a0,-20(s0)
     558:	331040ef          	jal	ra,5088 <fclose>
}
     55c:	02c12083          	lw	ra,44(sp)
     560:	02812403          	lw	s0,40(sp)
     564:	03010113          	addi	sp,sp,48
     568:	00008067          	ret

0000056c <performDWT>:

void performDWT(double *signal, int signalLength, double *Lo_D, double *Hi_D, int filterLength, double *A, double *D) {
     56c:	fb010113          	addi	sp,sp,-80
     570:	04112623          	sw	ra,76(sp)
     574:	04812423          	sw	s0,72(sp)
     578:	04912223          	sw	s1,68(sp)
     57c:	05212023          	sw	s2,64(sp)
     580:	03312e23          	sw	s3,60(sp)
     584:	05010413          	addi	s0,sp,80
     588:	fca42623          	sw	a0,-52(s0)
     58c:	fcb42423          	sw	a1,-56(s0)
     590:	fcc42223          	sw	a2,-60(s0)
     594:	fcd42023          	sw	a3,-64(s0)
     598:	fae42e23          	sw	a4,-68(s0)
     59c:	faf42c23          	sw	a5,-72(s0)
     5a0:	fb042a23          	sw	a6,-76(s0)
    // Taille des nouveaux signaux aprs la DWT
    int newLength = (signalLength + filterLength - 1) / 2;
     5a4:	fc842703          	lw	a4,-56(s0)
     5a8:	fbc42783          	lw	a5,-68(s0)
     5ac:	00f707b3          	add	a5,a4,a5
     5b0:	fff78793          	addi	a5,a5,-1
     5b4:	01f7d713          	srli	a4,a5,0x1f
     5b8:	00f707b3          	add	a5,a4,a5
     5bc:	4017d793          	srai	a5,a5,0x1
     5c0:	fcf42c23          	sw	a5,-40(s0)

    for (int i = 0; i < newLength; i++) {
     5c4:	fc042823          	sw	zero,-48(s0)
     5c8:	1a80006f          	j	770 <performDWT+0x204>
        A[i] = 0.0;
     5cc:	fd042783          	lw	a5,-48(s0)
     5d0:	00379793          	slli	a5,a5,0x3
     5d4:	fb842703          	lw	a4,-72(s0)
     5d8:	00f707b3          	add	a5,a4,a5
     5dc:	0007a023          	sw	zero,0(a5)
     5e0:	0007a223          	sw	zero,4(a5)
        D[i] = 0.0;
     5e4:	fd042783          	lw	a5,-48(s0)
     5e8:	00379793          	slli	a5,a5,0x3
     5ec:	fb442703          	lw	a4,-76(s0)
     5f0:	00f707b3          	add	a5,a4,a5
     5f4:	0007a023          	sw	zero,0(a5)
     5f8:	0007a223          	sw	zero,4(a5)
        for (int j = 0; j < filterLength; j++) {
     5fc:	fc042a23          	sw	zero,-44(s0)
     600:	1580006f          	j	758 <performDWT+0x1ec>
            int k = 2 * i - j;
     604:	fd042783          	lw	a5,-48(s0)
     608:	00179713          	slli	a4,a5,0x1
     60c:	fd442783          	lw	a5,-44(s0)
     610:	40f707b3          	sub	a5,a4,a5
     614:	fcf42e23          	sw	a5,-36(s0)
            if (k >= 0 && k < signalLength) {
     618:	fdc42783          	lw	a5,-36(s0)
     61c:	1207c863          	bltz	a5,74c <performDWT+0x1e0>
     620:	fdc42703          	lw	a4,-36(s0)
     624:	fc842783          	lw	a5,-56(s0)
     628:	12f75263          	bge	a4,a5,74c <performDWT+0x1e0>
                A[i] += signal[k] * Lo_D[j];
     62c:	fd042783          	lw	a5,-48(s0)
     630:	00379793          	slli	a5,a5,0x3
     634:	fb842703          	lw	a4,-72(s0)
     638:	00f707b3          	add	a5,a4,a5
     63c:	0007a903          	lw	s2,0(a5)
     640:	0047a983          	lw	s3,4(a5)
     644:	fdc42783          	lw	a5,-36(s0)
     648:	00379793          	slli	a5,a5,0x3
     64c:	fcc42703          	lw	a4,-52(s0)
     650:	00f707b3          	add	a5,a4,a5
     654:	0007a703          	lw	a4,0(a5)
     658:	0047a783          	lw	a5,4(a5)
     65c:	fd442683          	lw	a3,-44(s0)
     660:	00369693          	slli	a3,a3,0x3
     664:	fc442603          	lw	a2,-60(s0)
     668:	00d606b3          	add	a3,a2,a3
     66c:	0006a603          	lw	a2,0(a3)
     670:	0046a683          	lw	a3,4(a3)
     674:	00070513          	mv	a0,a4
     678:	00078593          	mv	a1,a5
     67c:	011220ef          	jal	ra,22e8c <__muldf3>
     680:	00050713          	mv	a4,a0
     684:	00058793          	mv	a5,a1
     688:	00070613          	mv	a2,a4
     68c:	00078693          	mv	a3,a5
     690:	fd042783          	lw	a5,-48(s0)
     694:	00379793          	slli	a5,a5,0x3
     698:	fb842703          	lw	a4,-72(s0)
     69c:	00f704b3          	add	s1,a4,a5
     6a0:	00090513          	mv	a0,s2
     6a4:	00098593          	mv	a1,s3
     6a8:	50c210ef          	jal	ra,21bb4 <__adddf3>
     6ac:	00050713          	mv	a4,a0
     6b0:	00058793          	mv	a5,a1
     6b4:	00e4a023          	sw	a4,0(s1)
     6b8:	00f4a223          	sw	a5,4(s1)
                D[i] += signal[k] * Hi_D[j];
     6bc:	fd042783          	lw	a5,-48(s0)
     6c0:	00379793          	slli	a5,a5,0x3
     6c4:	fb442703          	lw	a4,-76(s0)
     6c8:	00f707b3          	add	a5,a4,a5
     6cc:	0007a903          	lw	s2,0(a5)
     6d0:	0047a983          	lw	s3,4(a5)
     6d4:	fdc42783          	lw	a5,-36(s0)
     6d8:	00379793          	slli	a5,a5,0x3
     6dc:	fcc42703          	lw	a4,-52(s0)
     6e0:	00f707b3          	add	a5,a4,a5
     6e4:	0007a703          	lw	a4,0(a5)
     6e8:	0047a783          	lw	a5,4(a5)
     6ec:	fd442683          	lw	a3,-44(s0)
     6f0:	00369693          	slli	a3,a3,0x3
     6f4:	fc042603          	lw	a2,-64(s0)
     6f8:	00d606b3          	add	a3,a2,a3
     6fc:	0006a603          	lw	a2,0(a3)
     700:	0046a683          	lw	a3,4(a3)
     704:	00070513          	mv	a0,a4
     708:	00078593          	mv	a1,a5
     70c:	780220ef          	jal	ra,22e8c <__muldf3>
     710:	00050713          	mv	a4,a0
     714:	00058793          	mv	a5,a1
     718:	00070613          	mv	a2,a4
     71c:	00078693          	mv	a3,a5
     720:	fd042783          	lw	a5,-48(s0)
     724:	00379793          	slli	a5,a5,0x3
     728:	fb442703          	lw	a4,-76(s0)
     72c:	00f704b3          	add	s1,a4,a5
     730:	00090513          	mv	a0,s2
     734:	00098593          	mv	a1,s3
     738:	47c210ef          	jal	ra,21bb4 <__adddf3>
     73c:	00050713          	mv	a4,a0
     740:	00058793          	mv	a5,a1
     744:	00e4a023          	sw	a4,0(s1)
     748:	00f4a223          	sw	a5,4(s1)
        for (int j = 0; j < filterLength; j++) {
     74c:	fd442783          	lw	a5,-44(s0)
     750:	00178793          	addi	a5,a5,1
     754:	fcf42a23          	sw	a5,-44(s0)
     758:	fd442703          	lw	a4,-44(s0)
     75c:	fbc42783          	lw	a5,-68(s0)
     760:	eaf742e3          	blt	a4,a5,604 <performDWT+0x98>
    for (int i = 0; i < newLength; i++) {
     764:	fd042783          	lw	a5,-48(s0)
     768:	00178793          	addi	a5,a5,1
     76c:	fcf42823          	sw	a5,-48(s0)
     770:	fd042703          	lw	a4,-48(s0)
     774:	fd842783          	lw	a5,-40(s0)
     778:	e4f74ae3          	blt	a4,a5,5cc <performDWT+0x60>
            }
        }
    }
}
     77c:	00000013          	nop
     780:	00000013          	nop
     784:	04c12083          	lw	ra,76(sp)
     788:	04812403          	lw	s0,72(sp)
     78c:	04412483          	lw	s1,68(sp)
     790:	04012903          	lw	s2,64(sp)
     794:	03c12983          	lw	s3,60(sp)
     798:	05010113          	addi	sp,sp,80
     79c:	00008067          	ret

000007a0 <performSingleLevelReconstruction>:

void performSingleLevelReconstruction(double *A, int signalLength, double *Lo_R, double *reconstructedSignal) {
     7a0:	81010113          	addi	sp,sp,-2032
     7a4:	7e112623          	sw	ra,2028(sp)
     7a8:	7e812423          	sw	s0,2024(sp)
     7ac:	7e912223          	sw	s1,2020(sp)
     7b0:	7f212023          	sw	s2,2016(sp)
     7b4:	7d312e23          	sw	s3,2012(sp)
     7b8:	7f010413          	addi	s0,sp,2032
     7bc:	ffff92b7          	lui	t0,0xffff9
     7c0:	aa028293          	addi	t0,t0,-1376 # ffff8aa0 <__alt_data_end+0xfff7e980>
     7c4:	00510133          	add	sp,sp,t0
     7c8:	ffff87b7          	lui	a5,0xffff8
     7cc:	fe078793          	addi	a5,a5,-32 # ffff7fe0 <__alt_data_end+0xfff7dec0>
     7d0:	008787b3          	add	a5,a5,s0
     7d4:	2ca7ae23          	sw	a0,732(a5)
     7d8:	ffff87b7          	lui	a5,0xffff8
     7dc:	fe078793          	addi	a5,a5,-32 # ffff7fe0 <__alt_data_end+0xfff7dec0>
     7e0:	008787b3          	add	a5,a5,s0
     7e4:	2cb7ac23          	sw	a1,728(a5)
     7e8:	ffff87b7          	lui	a5,0xffff8
     7ec:	fe078793          	addi	a5,a5,-32 # ffff7fe0 <__alt_data_end+0xfff7dec0>
     7f0:	008787b3          	add	a5,a5,s0
     7f4:	2cc7aa23          	sw	a2,724(a5)
     7f8:	ffff87b7          	lui	a5,0xffff8
     7fc:	fe078793          	addi	a5,a5,-32 # ffff7fe0 <__alt_data_end+0xfff7dec0>
     800:	008787b3          	add	a5,a5,s0
     804:	2cd7a823          	sw	a3,720(a5)
     808:	000317b7          	lui	a5,0x31
     80c:	dbc7a703          	lw	a4,-580(a5) # 30dbc <__stack_chk_guard>
     810:	fce42e23          	sw	a4,-36(s0)
     814:	00000713          	li	a4,0
    double upsampled_A[MAX_UPSAMPLED_LENGTH]; // Signal surchantillonn (statique)

    // Insertion de zros entre les coefficients pour surchantillonnage
    for (int i = 0; i < signalLength; i++) {
     818:	ffff87b7          	lui	a5,0xffff8
     81c:	fe078793          	addi	a5,a5,-32 # ffff7fe0 <__alt_data_end+0xfff7dec0>
     820:	008787b3          	add	a5,a5,s0
     824:	2e07a423          	sw	zero,744(a5)
     828:	0880006f          	j	8b0 <performSingleLevelReconstruction+0x110>
        upsampled_A[2 * i] = A[i];
     82c:	ffff87b7          	lui	a5,0xffff8
     830:	fe078793          	addi	a5,a5,-32 # ffff7fe0 <__alt_data_end+0xfff7dec0>
     834:	008787b3          	add	a5,a5,s0
     838:	2e87a783          	lw	a5,744(a5)
     83c:	00379793          	slli	a5,a5,0x3
     840:	ffff8737          	lui	a4,0xffff8
     844:	fe070713          	addi	a4,a4,-32 # ffff7fe0 <__alt_data_end+0xfff7dec0>
     848:	00870733          	add	a4,a4,s0
     84c:	2dc72703          	lw	a4,732(a4)
     850:	00f70733          	add	a4,a4,a5
     854:	ffff87b7          	lui	a5,0xffff8
     858:	fe078793          	addi	a5,a5,-32 # ffff7fe0 <__alt_data_end+0xfff7dec0>
     85c:	008787b3          	add	a5,a5,s0
     860:	2e87a783          	lw	a5,744(a5)
     864:	00179793          	slli	a5,a5,0x1
     868:	00072603          	lw	a2,0(a4)
     86c:	00472683          	lw	a3,4(a4)
     870:	ffff8737          	lui	a4,0xffff8
     874:	fe070713          	addi	a4,a4,-32 # ffff7fe0 <__alt_data_end+0xfff7dec0>
     878:	00870733          	add	a4,a4,s0
     87c:	00379793          	slli	a5,a5,0x3
     880:	00f707b3          	add	a5,a4,a5
     884:	2ec7ac23          	sw	a2,760(a5)
     888:	2ed7ae23          	sw	a3,764(a5)
    for (int i = 0; i < signalLength; i++) {
     88c:	ffff87b7          	lui	a5,0xffff8
     890:	fe078793          	addi	a5,a5,-32 # ffff7fe0 <__alt_data_end+0xfff7dec0>
     894:	008787b3          	add	a5,a5,s0
     898:	ffff8737          	lui	a4,0xffff8
     89c:	fe070713          	addi	a4,a4,-32 # ffff7fe0 <__alt_data_end+0xfff7dec0>
     8a0:	00870733          	add	a4,a4,s0
     8a4:	2e872703          	lw	a4,744(a4)
     8a8:	00170713          	addi	a4,a4,1
     8ac:	2ee7a423          	sw	a4,744(a5)
     8b0:	ffff87b7          	lui	a5,0xffff8
     8b4:	fe078793          	addi	a5,a5,-32 # ffff7fe0 <__alt_data_end+0xfff7dec0>
     8b8:	00878733          	add	a4,a5,s0
     8bc:	ffff87b7          	lui	a5,0xffff8
     8c0:	fe078793          	addi	a5,a5,-32 # ffff7fe0 <__alt_data_end+0xfff7dec0>
     8c4:	008787b3          	add	a5,a5,s0
     8c8:	2e872703          	lw	a4,744(a4)
     8cc:	2d87a783          	lw	a5,728(a5)
     8d0:	f4f74ee3          	blt	a4,a5,82c <performSingleLevelReconstruction+0x8c>
    }

    // Reconstruction du signal
    for (int i = 0; i < 2 * signalLength; i++) {
     8d4:	ffff87b7          	lui	a5,0xffff8
     8d8:	fe078793          	addi	a5,a5,-32 # ffff7fe0 <__alt_data_end+0xfff7dec0>
     8dc:	008787b3          	add	a5,a5,s0
     8e0:	2e07a623          	sw	zero,748(a5)
     8e4:	2040006f          	j	ae8 <performSingleLevelReconstruction+0x348>
        reconstructedSignal[i] = 0.0;
     8e8:	ffff87b7          	lui	a5,0xffff8
     8ec:	fe078793          	addi	a5,a5,-32 # ffff7fe0 <__alt_data_end+0xfff7dec0>
     8f0:	008787b3          	add	a5,a5,s0
     8f4:	2ec7a783          	lw	a5,748(a5)
     8f8:	00379793          	slli	a5,a5,0x3
     8fc:	ffff8737          	lui	a4,0xffff8
     900:	fe070713          	addi	a4,a4,-32 # ffff7fe0 <__alt_data_end+0xfff7dec0>
     904:	00870733          	add	a4,a4,s0
     908:	2d072703          	lw	a4,720(a4)
     90c:	00f707b3          	add	a5,a4,a5
     910:	0007a023          	sw	zero,0(a5)
     914:	0007a223          	sw	zero,4(a5)
        for (int j = 0; j < FILTER_LENGTH; j++) {
     918:	ffff87b7          	lui	a5,0xffff8
     91c:	fe078793          	addi	a5,a5,-32 # ffff7fe0 <__alt_data_end+0xfff7dec0>
     920:	008787b3          	add	a5,a5,s0
     924:	2e07a823          	sw	zero,752(a5)
     928:	1840006f          	j	aac <performSingleLevelReconstruction+0x30c>
            int k = i - j;
     92c:	ffff87b7          	lui	a5,0xffff8
     930:	fe078793          	addi	a5,a5,-32 # ffff7fe0 <__alt_data_end+0xfff7dec0>
     934:	008787b3          	add	a5,a5,s0
     938:	ffff8737          	lui	a4,0xffff8
     93c:	fe070713          	addi	a4,a4,-32 # ffff7fe0 <__alt_data_end+0xfff7dec0>
     940:	008706b3          	add	a3,a4,s0
     944:	ffff8737          	lui	a4,0xffff8
     948:	fe070713          	addi	a4,a4,-32 # ffff7fe0 <__alt_data_end+0xfff7dec0>
     94c:	00870733          	add	a4,a4,s0
     950:	2ec6a683          	lw	a3,748(a3)
     954:	2f072703          	lw	a4,752(a4)
     958:	40e68733          	sub	a4,a3,a4
     95c:	2ee7aa23          	sw	a4,756(a5)
            if (k >= 0 && k < 2 * signalLength) {
     960:	ffff87b7          	lui	a5,0xffff8
     964:	fe078793          	addi	a5,a5,-32 # ffff7fe0 <__alt_data_end+0xfff7dec0>
     968:	008787b3          	add	a5,a5,s0
     96c:	2f47a783          	lw	a5,756(a5)
     970:	1007cc63          	bltz	a5,a88 <performSingleLevelReconstruction+0x2e8>
     974:	ffff87b7          	lui	a5,0xffff8
     978:	fe078793          	addi	a5,a5,-32 # ffff7fe0 <__alt_data_end+0xfff7dec0>
     97c:	008787b3          	add	a5,a5,s0
     980:	2d87a783          	lw	a5,728(a5)
     984:	00179793          	slli	a5,a5,0x1
     988:	ffff8737          	lui	a4,0xffff8
     98c:	fe070713          	addi	a4,a4,-32 # ffff7fe0 <__alt_data_end+0xfff7dec0>
     990:	00870733          	add	a4,a4,s0
     994:	2f472703          	lw	a4,756(a4)
     998:	0ef75863          	bge	a4,a5,a88 <performSingleLevelReconstruction+0x2e8>
                reconstructedSignal[i] += upsampled_A[k] * Lo_R[j];
     99c:	ffff87b7          	lui	a5,0xffff8
     9a0:	fe078793          	addi	a5,a5,-32 # ffff7fe0 <__alt_data_end+0xfff7dec0>
     9a4:	008787b3          	add	a5,a5,s0
     9a8:	2ec7a783          	lw	a5,748(a5)
     9ac:	00379793          	slli	a5,a5,0x3
     9b0:	ffff8737          	lui	a4,0xffff8
     9b4:	fe070713          	addi	a4,a4,-32 # ffff7fe0 <__alt_data_end+0xfff7dec0>
     9b8:	00870733          	add	a4,a4,s0
     9bc:	2d072703          	lw	a4,720(a4)
     9c0:	00f707b3          	add	a5,a4,a5
     9c4:	0007a903          	lw	s2,0(a5)
     9c8:	0047a983          	lw	s3,4(a5)
     9cc:	ffff87b7          	lui	a5,0xffff8
     9d0:	fe078793          	addi	a5,a5,-32 # ffff7fe0 <__alt_data_end+0xfff7dec0>
     9d4:	00878733          	add	a4,a5,s0
     9d8:	ffff87b7          	lui	a5,0xffff8
     9dc:	fe078793          	addi	a5,a5,-32 # ffff7fe0 <__alt_data_end+0xfff7dec0>
     9e0:	008787b3          	add	a5,a5,s0
     9e4:	2f47a783          	lw	a5,756(a5)
     9e8:	00379793          	slli	a5,a5,0x3
     9ec:	00f707b3          	add	a5,a4,a5
     9f0:	2f87a703          	lw	a4,760(a5)
     9f4:	2fc7a783          	lw	a5,764(a5)
     9f8:	ffff86b7          	lui	a3,0xffff8
     9fc:	fe068693          	addi	a3,a3,-32 # ffff7fe0 <__alt_data_end+0xfff7dec0>
     a00:	008686b3          	add	a3,a3,s0
     a04:	2f06a683          	lw	a3,752(a3)
     a08:	00369693          	slli	a3,a3,0x3
     a0c:	ffff8637          	lui	a2,0xffff8
     a10:	fe060613          	addi	a2,a2,-32 # ffff7fe0 <__alt_data_end+0xfff7dec0>
     a14:	00860633          	add	a2,a2,s0
     a18:	2d462603          	lw	a2,724(a2)
     a1c:	00d606b3          	add	a3,a2,a3
     a20:	0006a603          	lw	a2,0(a3)
     a24:	0046a683          	lw	a3,4(a3)
     a28:	00070513          	mv	a0,a4
     a2c:	00078593          	mv	a1,a5
     a30:	45c220ef          	jal	ra,22e8c <__muldf3>
     a34:	00050713          	mv	a4,a0
     a38:	00058793          	mv	a5,a1
     a3c:	00070613          	mv	a2,a4
     a40:	00078693          	mv	a3,a5
     a44:	ffff87b7          	lui	a5,0xffff8
     a48:	fe078793          	addi	a5,a5,-32 # ffff7fe0 <__alt_data_end+0xfff7dec0>
     a4c:	008787b3          	add	a5,a5,s0
     a50:	2ec7a783          	lw	a5,748(a5)
     a54:	00379793          	slli	a5,a5,0x3
     a58:	ffff8737          	lui	a4,0xffff8
     a5c:	fe070713          	addi	a4,a4,-32 # ffff7fe0 <__alt_data_end+0xfff7dec0>
     a60:	00870733          	add	a4,a4,s0
     a64:	2d072703          	lw	a4,720(a4)
     a68:	00f704b3          	add	s1,a4,a5
     a6c:	00090513          	mv	a0,s2
     a70:	00098593          	mv	a1,s3
     a74:	140210ef          	jal	ra,21bb4 <__adddf3>
     a78:	00050713          	mv	a4,a0
     a7c:	00058793          	mv	a5,a1
     a80:	00e4a023          	sw	a4,0(s1)
     a84:	00f4a223          	sw	a5,4(s1)
        for (int j = 0; j < FILTER_LENGTH; j++) {
     a88:	ffff87b7          	lui	a5,0xffff8
     a8c:	fe078793          	addi	a5,a5,-32 # ffff7fe0 <__alt_data_end+0xfff7dec0>
     a90:	008787b3          	add	a5,a5,s0
     a94:	ffff8737          	lui	a4,0xffff8
     a98:	fe070713          	addi	a4,a4,-32 # ffff7fe0 <__alt_data_end+0xfff7dec0>
     a9c:	00870733          	add	a4,a4,s0
     aa0:	2f072703          	lw	a4,752(a4)
     aa4:	00170713          	addi	a4,a4,1
     aa8:	2ee7a823          	sw	a4,752(a5)
     aac:	ffff87b7          	lui	a5,0xffff8
     ab0:	fe078793          	addi	a5,a5,-32 # ffff7fe0 <__alt_data_end+0xfff7dec0>
     ab4:	008787b3          	add	a5,a5,s0
     ab8:	2f07a703          	lw	a4,752(a5)
     abc:	00b00793          	li	a5,11
     ac0:	e6e7d6e3          	bge	a5,a4,92c <performSingleLevelReconstruction+0x18c>
    for (int i = 0; i < 2 * signalLength; i++) {
     ac4:	ffff87b7          	lui	a5,0xffff8
     ac8:	fe078793          	addi	a5,a5,-32 # ffff7fe0 <__alt_data_end+0xfff7dec0>
     acc:	008787b3          	add	a5,a5,s0
     ad0:	ffff8737          	lui	a4,0xffff8
     ad4:	fe070713          	addi	a4,a4,-32 # ffff7fe0 <__alt_data_end+0xfff7dec0>
     ad8:	00870733          	add	a4,a4,s0
     adc:	2ec72703          	lw	a4,748(a4)
     ae0:	00170713          	addi	a4,a4,1
     ae4:	2ee7a623          	sw	a4,748(a5)
     ae8:	ffff87b7          	lui	a5,0xffff8
     aec:	fe078793          	addi	a5,a5,-32 # ffff7fe0 <__alt_data_end+0xfff7dec0>
     af0:	008787b3          	add	a5,a5,s0
     af4:	2d87a783          	lw	a5,728(a5)
     af8:	00179793          	slli	a5,a5,0x1
     afc:	ffff8737          	lui	a4,0xffff8
     b00:	fe070713          	addi	a4,a4,-32 # ffff7fe0 <__alt_data_end+0xfff7dec0>
     b04:	00870733          	add	a4,a4,s0
     b08:	2ec72703          	lw	a4,748(a4)
     b0c:	dcf74ee3          	blt	a4,a5,8e8 <performSingleLevelReconstruction+0x148>
            }
        }
    }
}
     b10:	00000013          	nop
     b14:	000317b7          	lui	a5,0x31
     b18:	fdc42703          	lw	a4,-36(s0)
     b1c:	dbc7a783          	lw	a5,-580(a5) # 30dbc <__stack_chk_guard>
     b20:	00f747b3          	xor	a5,a4,a5
     b24:	00000713          	li	a4,0
     b28:	00078463          	beqz	a5,b30 <performSingleLevelReconstruction+0x390>
     b2c:	218070ef          	jal	ra,7d44 <__stack_chk_fail>
     b30:	000072b7          	lui	t0,0x7
     b34:	56028293          	addi	t0,t0,1376 # 7560 <memset+0xc8>
     b38:	00510133          	add	sp,sp,t0
     b3c:	7ec12083          	lw	ra,2028(sp)
     b40:	7e812403          	lw	s0,2024(sp)
     b44:	7e412483          	lw	s1,2020(sp)
     b48:	7e012903          	lw	s2,2016(sp)
     b4c:	7dc12983          	lw	s3,2012(sp)
     b50:	7f010113          	addi	sp,sp,2032
     b54:	00008067          	ret

00000b58 <applyADTF>:



void applyADTF(double *signal, int length, double b, int m, double *filteredSignal) {
     b58:	f9010113          	addi	sp,sp,-112
     b5c:	06112623          	sw	ra,108(sp)
     b60:	06812423          	sw	s0,104(sp)
     b64:	07010413          	addi	s0,sp,112
     b68:	faa42623          	sw	a0,-84(s0)
     b6c:	fab42423          	sw	a1,-88(s0)
     b70:	fac42023          	sw	a2,-96(s0)
     b74:	fad42223          	sw	a3,-92(s0)
     b78:	f8e42e23          	sw	a4,-100(s0)
     b7c:	f8f42c23          	sw	a5,-104(s0)
    int start_idx, end_idx;
    double g, Mx, Mi, Ht, Lt;

    for (int i = 0; i < length; i++) {
     b80:	fa042c23          	sw	zero,-72(s0)
     b84:	3b80006f          	j	f3c <applyADTF+0x3e4>
        start_idx = (i - m / 2 > 0) ? i - m / 2 : 0;
     b88:	f9c42783          	lw	a5,-100(s0)
     b8c:	01f7d713          	srli	a4,a5,0x1f
     b90:	00f707b3          	add	a5,a4,a5
     b94:	4017d793          	srai	a5,a5,0x1
     b98:	40f007b3          	neg	a5,a5
     b9c:	00078713          	mv	a4,a5
     ba0:	fb842783          	lw	a5,-72(s0)
     ba4:	00f707b3          	add	a5,a4,a5
     ba8:	0007d463          	bgez	a5,bb0 <applyADTF+0x58>
     bac:	00000793          	li	a5,0
     bb0:	fcf42023          	sw	a5,-64(s0)
        end_idx = (i + m / 2 < length) ? i + m / 2 : length - 1;
     bb4:	f9c42783          	lw	a5,-100(s0)
     bb8:	01f7d713          	srli	a4,a5,0x1f
     bbc:	00f707b3          	add	a5,a4,a5
     bc0:	4017d793          	srai	a5,a5,0x1
     bc4:	00078713          	mv	a4,a5
     bc8:	fb842783          	lw	a5,-72(s0)
     bcc:	00f707b3          	add	a5,a4,a5
     bd0:	fa842703          	lw	a4,-88(s0)
     bd4:	02e7d263          	bge	a5,a4,bf8 <applyADTF+0xa0>
     bd8:	f9c42783          	lw	a5,-100(s0)
     bdc:	01f7d713          	srli	a4,a5,0x1f
     be0:	00f707b3          	add	a5,a4,a5
     be4:	4017d793          	srai	a5,a5,0x1
     be8:	00078713          	mv	a4,a5
     bec:	fb842783          	lw	a5,-72(s0)
     bf0:	00f707b3          	add	a5,a4,a5
     bf4:	00c0006f          	j	c00 <applyADTF+0xa8>
     bf8:	fa842783          	lw	a5,-88(s0)
     bfc:	fff78793          	addi	a5,a5,-1
     c00:	fcf42223          	sw	a5,-60(s0)

        // Initialize variables for computing the mean, max, and min of the window
        g = 0;
     c04:	fc042423          	sw	zero,-56(s0)
     c08:	fc042623          	sw	zero,-52(s0)
        Mx = signal[start_idx];  // max value within the window
     c0c:	fc042783          	lw	a5,-64(s0)
     c10:	00379793          	slli	a5,a5,0x3
     c14:	fac42703          	lw	a4,-84(s0)
     c18:	00f707b3          	add	a5,a4,a5
     c1c:	0007a703          	lw	a4,0(a5)
     c20:	0047a783          	lw	a5,4(a5)
     c24:	fce42823          	sw	a4,-48(s0)
     c28:	fcf42a23          	sw	a5,-44(s0)
        Mi = signal[start_idx];  // min value within the window
     c2c:	fc042783          	lw	a5,-64(s0)
     c30:	00379793          	slli	a5,a5,0x3
     c34:	fac42703          	lw	a4,-84(s0)
     c38:	00f707b3          	add	a5,a4,a5
     c3c:	0007a703          	lw	a4,0(a5)
     c40:	0047a783          	lw	a5,4(a5)
     c44:	fce42c23          	sw	a4,-40(s0)
     c48:	fcf42e23          	sw	a5,-36(s0)
        for (int j = start_idx; j <= end_idx; j++) {
     c4c:	fc042783          	lw	a5,-64(s0)
     c50:	faf42e23          	sw	a5,-68(s0)
     c54:	0f40006f          	j	d48 <applyADTF+0x1f0>
            g += signal[j];
     c58:	fbc42783          	lw	a5,-68(s0)
     c5c:	00379793          	slli	a5,a5,0x3
     c60:	fac42703          	lw	a4,-84(s0)
     c64:	00f707b3          	add	a5,a4,a5
     c68:	0007a703          	lw	a4,0(a5)
     c6c:	0047a783          	lw	a5,4(a5)
     c70:	00070613          	mv	a2,a4
     c74:	00078693          	mv	a3,a5
     c78:	fc842503          	lw	a0,-56(s0)
     c7c:	fcc42583          	lw	a1,-52(s0)
     c80:	735200ef          	jal	ra,21bb4 <__adddf3>
     c84:	00050713          	mv	a4,a0
     c88:	00058793          	mv	a5,a1
     c8c:	fce42423          	sw	a4,-56(s0)
     c90:	fcf42623          	sw	a5,-52(s0)
            if (signal[j] > Mx) Mx = signal[j];
     c94:	fbc42783          	lw	a5,-68(s0)
     c98:	00379793          	slli	a5,a5,0x3
     c9c:	fac42703          	lw	a4,-84(s0)
     ca0:	00f707b3          	add	a5,a4,a5
     ca4:	0007a703          	lw	a4,0(a5)
     ca8:	0047a783          	lw	a5,4(a5)
     cac:	00070613          	mv	a2,a4
     cb0:	00078693          	mv	a3,a5
     cb4:	fd042503          	lw	a0,-48(s0)
     cb8:	fd442583          	lw	a1,-44(s0)
     cbc:	0d0220ef          	jal	ra,22d8c <__ledf2>
     cc0:	00050793          	mv	a5,a0
     cc4:	0207d263          	bgez	a5,ce8 <applyADTF+0x190>
     cc8:	fbc42783          	lw	a5,-68(s0)
     ccc:	00379793          	slli	a5,a5,0x3
     cd0:	fac42703          	lw	a4,-84(s0)
     cd4:	00f707b3          	add	a5,a4,a5
     cd8:	0007a703          	lw	a4,0(a5)
     cdc:	0047a783          	lw	a5,4(a5)
     ce0:	fce42823          	sw	a4,-48(s0)
     ce4:	fcf42a23          	sw	a5,-44(s0)
            if (signal[j] < Mi) Mi = signal[j];
     ce8:	fbc42783          	lw	a5,-68(s0)
     cec:	00379793          	slli	a5,a5,0x3
     cf0:	fac42703          	lw	a4,-84(s0)
     cf4:	00f707b3          	add	a5,a4,a5
     cf8:	0007a703          	lw	a4,0(a5)
     cfc:	0047a783          	lw	a5,4(a5)
     d00:	00070613          	mv	a2,a4
     d04:	00078693          	mv	a3,a5
     d08:	fd842503          	lw	a0,-40(s0)
     d0c:	fdc42583          	lw	a1,-36(s0)
     d10:	779210ef          	jal	ra,22c88 <__gedf2>
     d14:	00050793          	mv	a5,a0
     d18:	02f05263          	blez	a5,d3c <applyADTF+0x1e4>
     d1c:	fbc42783          	lw	a5,-68(s0)
     d20:	00379793          	slli	a5,a5,0x3
     d24:	fac42703          	lw	a4,-84(s0)
     d28:	00f707b3          	add	a5,a4,a5
     d2c:	0007a703          	lw	a4,0(a5)
     d30:	0047a783          	lw	a5,4(a5)
     d34:	fce42c23          	sw	a4,-40(s0)
     d38:	fcf42e23          	sw	a5,-36(s0)
        for (int j = start_idx; j <= end_idx; j++) {
     d3c:	fbc42783          	lw	a5,-68(s0)
     d40:	00178793          	addi	a5,a5,1
     d44:	faf42e23          	sw	a5,-68(s0)
     d48:	fbc42703          	lw	a4,-68(s0)
     d4c:	fc442783          	lw	a5,-60(s0)
     d50:	f0e7d4e3          	bge	a5,a4,c58 <applyADTF+0x100>
        }
        g /= (end_idx - start_idx + 1); // Calculate mean of window
     d54:	fc442703          	lw	a4,-60(s0)
     d58:	fc042783          	lw	a5,-64(s0)
     d5c:	40f707b3          	sub	a5,a4,a5
     d60:	00178793          	addi	a5,a5,1
     d64:	00078513          	mv	a0,a5
     d68:	2a8230ef          	jal	ra,24010 <__floatsidf>
     d6c:	00050713          	mv	a4,a0
     d70:	00058793          	mv	a5,a1
     d74:	00070613          	mv	a2,a4
     d78:	00078693          	mv	a3,a5
     d7c:	fc842503          	lw	a0,-56(s0)
     d80:	fcc42583          	lw	a1,-52(s0)
     d84:	6f8210ef          	jal	ra,2247c <__divdf3>
     d88:	00050713          	mv	a4,a0
     d8c:	00058793          	mv	a5,a1
     d90:	fce42423          	sw	a4,-56(s0)
     d94:	fcf42623          	sw	a5,-52(s0)
        Ht = g + b * (Mx - g);   // High threshold
     d98:	fc842603          	lw	a2,-56(s0)
     d9c:	fcc42683          	lw	a3,-52(s0)
     da0:	fd042503          	lw	a0,-48(s0)
     da4:	fd442583          	lw	a1,-44(s0)
     da8:	009220ef          	jal	ra,235b0 <__subdf3>
     dac:	00050713          	mv	a4,a0
     db0:	00058793          	mv	a5,a1
     db4:	fa042603          	lw	a2,-96(s0)
     db8:	fa442683          	lw	a3,-92(s0)
     dbc:	00070513          	mv	a0,a4
     dc0:	00078593          	mv	a1,a5
     dc4:	0c8220ef          	jal	ra,22e8c <__muldf3>
     dc8:	00050713          	mv	a4,a0
     dcc:	00058793          	mv	a5,a1
     dd0:	00070613          	mv	a2,a4
     dd4:	00078693          	mv	a3,a5
     dd8:	fc842503          	lw	a0,-56(s0)
     ddc:	fcc42583          	lw	a1,-52(s0)
     de0:	5d5200ef          	jal	ra,21bb4 <__adddf3>
     de4:	00050713          	mv	a4,a0
     de8:	00058793          	mv	a5,a1
     dec:	fee42023          	sw	a4,-32(s0)
     df0:	fef42223          	sw	a5,-28(s0)
        Lt = g - b * (g - Mi);  // low threshold
     df4:	fd842603          	lw	a2,-40(s0)
     df8:	fdc42683          	lw	a3,-36(s0)
     dfc:	fc842503          	lw	a0,-56(s0)
     e00:	fcc42583          	lw	a1,-52(s0)
     e04:	7ac220ef          	jal	ra,235b0 <__subdf3>
     e08:	00050713          	mv	a4,a0
     e0c:	00058793          	mv	a5,a1
     e10:	fa042603          	lw	a2,-96(s0)
     e14:	fa442683          	lw	a3,-92(s0)
     e18:	00070513          	mv	a0,a4
     e1c:	00078593          	mv	a1,a5
     e20:	06c220ef          	jal	ra,22e8c <__muldf3>
     e24:	00050713          	mv	a4,a0
     e28:	00058793          	mv	a5,a1
     e2c:	00070613          	mv	a2,a4
     e30:	00078693          	mv	a3,a5
     e34:	fc842503          	lw	a0,-56(s0)
     e38:	fcc42583          	lw	a1,-52(s0)
     e3c:	774220ef          	jal	ra,235b0 <__subdf3>
     e40:	00050713          	mv	a4,a0
     e44:	00058793          	mv	a5,a1
     e48:	fee42423          	sw	a4,-24(s0)
     e4c:	fef42623          	sw	a5,-20(s0)

        // Apply thresholds

        if (signal[i] > Ht) {
     e50:	fb842783          	lw	a5,-72(s0)
     e54:	00379793          	slli	a5,a5,0x3
     e58:	fac42703          	lw	a4,-84(s0)
     e5c:	00f707b3          	add	a5,a4,a5
     e60:	0007a703          	lw	a4,0(a5)
     e64:	0047a783          	lw	a5,4(a5)
     e68:	00070613          	mv	a2,a4
     e6c:	00078693          	mv	a3,a5
     e70:	fe042503          	lw	a0,-32(s0)
     e74:	fe442583          	lw	a1,-28(s0)
     e78:	715210ef          	jal	ra,22d8c <__ledf2>
     e7c:	00050793          	mv	a5,a0
     e80:	0207d463          	bgez	a5,ea8 <applyADTF+0x350>
            filteredSignal[i] = Ht;
     e84:	fb842783          	lw	a5,-72(s0)
     e88:	00379793          	slli	a5,a5,0x3
     e8c:	f9842703          	lw	a4,-104(s0)
     e90:	00f706b3          	add	a3,a4,a5
     e94:	fe042703          	lw	a4,-32(s0)
     e98:	fe442783          	lw	a5,-28(s0)
     e9c:	00e6a023          	sw	a4,0(a3)
     ea0:	00f6a223          	sw	a5,4(a3)
     ea4:	08c0006f          	j	f30 <applyADTF+0x3d8>
        } else if (signal[i] < Lt) {
     ea8:	fb842783          	lw	a5,-72(s0)
     eac:	00379793          	slli	a5,a5,0x3
     eb0:	fac42703          	lw	a4,-84(s0)
     eb4:	00f707b3          	add	a5,a4,a5
     eb8:	0007a703          	lw	a4,0(a5)
     ebc:	0047a783          	lw	a5,4(a5)
     ec0:	00070613          	mv	a2,a4
     ec4:	00078693          	mv	a3,a5
     ec8:	fe842503          	lw	a0,-24(s0)
     ecc:	fec42583          	lw	a1,-20(s0)
     ed0:	5b9210ef          	jal	ra,22c88 <__gedf2>
     ed4:	00050793          	mv	a5,a0
     ed8:	02f05463          	blez	a5,f00 <applyADTF+0x3a8>
            filteredSignal[i] = Lt;
     edc:	fb842783          	lw	a5,-72(s0)
     ee0:	00379793          	slli	a5,a5,0x3
     ee4:	f9842703          	lw	a4,-104(s0)
     ee8:	00f706b3          	add	a3,a4,a5
     eec:	fe842703          	lw	a4,-24(s0)
     ef0:	fec42783          	lw	a5,-20(s0)
     ef4:	00e6a023          	sw	a4,0(a3)
     ef8:	00f6a223          	sw	a5,4(a3)
     efc:	0340006f          	j	f30 <applyADTF+0x3d8>
        } else {
            filteredSignal[i] = signal[i];
     f00:	fb842783          	lw	a5,-72(s0)
     f04:	00379793          	slli	a5,a5,0x3
     f08:	fac42703          	lw	a4,-84(s0)
     f0c:	00f707b3          	add	a5,a4,a5
     f10:	fb842703          	lw	a4,-72(s0)
     f14:	00371713          	slli	a4,a4,0x3
     f18:	f9842683          	lw	a3,-104(s0)
     f1c:	00e686b3          	add	a3,a3,a4
     f20:	0007a703          	lw	a4,0(a5)
     f24:	0047a783          	lw	a5,4(a5)
     f28:	00e6a023          	sw	a4,0(a3)
     f2c:	00f6a223          	sw	a5,4(a3)
    for (int i = 0; i < length; i++) {
     f30:	fb842783          	lw	a5,-72(s0)
     f34:	00178793          	addi	a5,a5,1
     f38:	faf42c23          	sw	a5,-72(s0)
     f3c:	fb842703          	lw	a4,-72(s0)
     f40:	fa842783          	lw	a5,-88(s0)
     f44:	c4f742e3          	blt	a4,a5,b88 <applyADTF+0x30>
        }
    } //
}
     f48:	00000013          	nop
     f4c:	00000013          	nop
     f50:	06c12083          	lw	ra,108(sp)
     f54:	06812403          	lw	s0,104(sp)
     f58:	07010113          	addi	sp,sp,112
     f5c:	00008067          	ret

00000f60 <correctHighestPeaks>:


void correctHighestPeaks(double *finalSignal, double *adtfSignal, double *correctedSignal, int length, double threshold) {
     f60:	fb010113          	addi	sp,sp,-80
     f64:	04112623          	sw	ra,76(sp)
     f68:	04812423          	sw	s0,72(sp)
     f6c:	05212223          	sw	s2,68(sp)
     f70:	05312023          	sw	s3,64(sp)
     f74:	05010413          	addi	s0,sp,80
     f78:	fca42623          	sw	a0,-52(s0)
     f7c:	fcb42423          	sw	a1,-56(s0)
     f80:	fcc42223          	sw	a2,-60(s0)
     f84:	fcd42023          	sw	a3,-64(s0)
     f88:	fae42c23          	sw	a4,-72(s0)
     f8c:	faf42e23          	sw	a5,-68(s0)
    double peakThreshold = threshold;
     f90:	fb842703          	lw	a4,-72(s0)
     f94:	fbc42783          	lw	a5,-68(s0)
     f98:	fee42423          	sw	a4,-24(s0)
     f9c:	fef42623          	sw	a5,-20(s0)
    int correctionRadius = 10; // Example radius around each peak for correction
     fa0:	00a00793          	li	a5,10
     fa4:	fcf42e23          	sw	a5,-36(s0)

    // Copy the entire ADTF signal into the correctedSignal as a baseline
    memcpy(correctedSignal, adtfSignal, length * sizeof(double));
     fa8:	fc042783          	lw	a5,-64(s0)
     fac:	00379793          	slli	a5,a5,0x3
     fb0:	00078613          	mv	a2,a5
     fb4:	fc842583          	lw	a1,-56(s0)
     fb8:	fc442503          	lw	a0,-60(s0)
     fbc:	338060ef          	jal	ra,72f4 <memcpy>

    // Iterate through the finalSignal to find and correct peaks
    for (int i = 0; i < length; ++i) {
     fc0:	fc042a23          	sw	zero,-44(s0)
     fc4:	0f00006f          	j	10b4 <correctHighestPeaks+0x154>
        if (fabs(finalSignal[i]) > peakThreshold) {
     fc8:	fd442783          	lw	a5,-44(s0)
     fcc:	00379793          	slli	a5,a5,0x3
     fd0:	fcc42703          	lw	a4,-52(s0)
     fd4:	00f707b3          	add	a5,a4,a5
     fd8:	0007a703          	lw	a4,0(a5)
     fdc:	0047a783          	lw	a5,4(a5)
     fe0:	00070913          	mv	s2,a4
     fe4:	800006b7          	lui	a3,0x80000
     fe8:	fff6c693          	not	a3,a3
     fec:	00d7f9b3          	and	s3,a5,a3
     ff0:	00090613          	mv	a2,s2
     ff4:	00098693          	mv	a3,s3
     ff8:	fe842503          	lw	a0,-24(s0)
     ffc:	fec42583          	lw	a1,-20(s0)
    1000:	58d210ef          	jal	ra,22d8c <__ledf2>
    1004:	00050793          	mv	a5,a0
    1008:	0a07d063          	bgez	a5,10a8 <correctHighestPeaks+0x148>
            // Identified a peak exceeding the threshold
            int start = i - correctionRadius >= 0 ? i - correctionRadius : 0;
    100c:	fd442703          	lw	a4,-44(s0)
    1010:	fdc42783          	lw	a5,-36(s0)
    1014:	40f707b3          	sub	a5,a4,a5
    1018:	0007d463          	bgez	a5,1020 <correctHighestPeaks+0xc0>
    101c:	00000793          	li	a5,0
    1020:	fef42023          	sw	a5,-32(s0)
            int end = i + correctionRadius < length ? i + correctionRadius : length - 1;
    1024:	fd442703          	lw	a4,-44(s0)
    1028:	fdc42783          	lw	a5,-36(s0)
    102c:	00f707b3          	add	a5,a4,a5
    1030:	fc042703          	lw	a4,-64(s0)
    1034:	00e7da63          	bge	a5,a4,1048 <correctHighestPeaks+0xe8>
    1038:	fd442703          	lw	a4,-44(s0)
    103c:	fdc42783          	lw	a5,-36(s0)
    1040:	00f707b3          	add	a5,a4,a5
    1044:	00c0006f          	j	1050 <correctHighestPeaks+0xf0>
    1048:	fc042783          	lw	a5,-64(s0)
    104c:	fff78793          	addi	a5,a5,-1
    1050:	fef42223          	sw	a5,-28(s0)

            // Replace the segment around the peak in correctedSignal with values from the finalSignal
            for (int j = start; j <= end; ++j) {
    1054:	fe042783          	lw	a5,-32(s0)
    1058:	fcf42c23          	sw	a5,-40(s0)
    105c:	0400006f          	j	109c <correctHighestPeaks+0x13c>
                correctedSignal[j] = finalSignal[j];
    1060:	fd842783          	lw	a5,-40(s0)
    1064:	00379793          	slli	a5,a5,0x3
    1068:	fcc42703          	lw	a4,-52(s0)
    106c:	00f707b3          	add	a5,a4,a5
    1070:	fd842703          	lw	a4,-40(s0)
    1074:	00371713          	slli	a4,a4,0x3
    1078:	fc442683          	lw	a3,-60(s0)
    107c:	00e686b3          	add	a3,a3,a4
    1080:	0007a703          	lw	a4,0(a5)
    1084:	0047a783          	lw	a5,4(a5)
    1088:	00e6a023          	sw	a4,0(a3) # 80000000 <__alt_data_end+0x7ff85ee0>
    108c:	00f6a223          	sw	a5,4(a3)
            for (int j = start; j <= end; ++j) {
    1090:	fd842783          	lw	a5,-40(s0)
    1094:	00178793          	addi	a5,a5,1
    1098:	fcf42c23          	sw	a5,-40(s0)
    109c:	fd842703          	lw	a4,-40(s0)
    10a0:	fe442783          	lw	a5,-28(s0)
    10a4:	fae7dee3          	bge	a5,a4,1060 <correctHighestPeaks+0x100>
    for (int i = 0; i < length; ++i) {
    10a8:	fd442783          	lw	a5,-44(s0)
    10ac:	00178793          	addi	a5,a5,1
    10b0:	fcf42a23          	sw	a5,-44(s0)
    10b4:	fd442703          	lw	a4,-44(s0)
    10b8:	fc042783          	lw	a5,-64(s0)
    10bc:	f0f746e3          	blt	a4,a5,fc8 <correctHighestPeaks+0x68>
            }
        }
    }
}
    10c0:	00000013          	nop
    10c4:	00000013          	nop
    10c8:	04c12083          	lw	ra,76(sp)
    10cc:	04812403          	lw	s0,72(sp)
    10d0:	04412903          	lw	s2,68(sp)
    10d4:	04012983          	lw	s3,64(sp)
    10d8:	05010113          	addi	sp,sp,80
    10dc:	00008067          	ret

000010e0 <addGaussianNoise>:




// Function to add Gaussian noise to a signal
void addGaussianNoise(double *signal, int length, double snr) {
    10e0:	fb010113          	addi	sp,sp,-80
    10e4:	04112623          	sw	ra,76(sp)
    10e8:	04812423          	sw	s0,72(sp)
    10ec:	04912223          	sw	s1,68(sp)
    10f0:	05010413          	addi	s0,sp,80
    10f4:	faa42e23          	sw	a0,-68(s0)
    10f8:	fab42c23          	sw	a1,-72(s0)
    10fc:	fac42823          	sw	a2,-80(s0)
    1100:	fad42a23          	sw	a3,-76(s0)
    double signalPower = 0;
    1104:	fc042823          	sw	zero,-48(s0)
    1108:	fc042a23          	sw	zero,-44(s0)
    for (int i = 0; i < length; i++) {
    110c:	fc042423          	sw	zero,-56(s0)
    1110:	0780006f          	j	1188 <addGaussianNoise+0xa8>
        signalPower += signal[i] * signal[i];
    1114:	fc842783          	lw	a5,-56(s0)
    1118:	00379793          	slli	a5,a5,0x3
    111c:	fbc42703          	lw	a4,-68(s0)
    1120:	00f707b3          	add	a5,a4,a5
    1124:	0007a703          	lw	a4,0(a5)
    1128:	0047a783          	lw	a5,4(a5)
    112c:	fc842683          	lw	a3,-56(s0)
    1130:	00369693          	slli	a3,a3,0x3
    1134:	fbc42603          	lw	a2,-68(s0)
    1138:	00d606b3          	add	a3,a2,a3
    113c:	0006a603          	lw	a2,0(a3)
    1140:	0046a683          	lw	a3,4(a3)
    1144:	00070513          	mv	a0,a4
    1148:	00078593          	mv	a1,a5
    114c:	541210ef          	jal	ra,22e8c <__muldf3>
    1150:	00050713          	mv	a4,a0
    1154:	00058793          	mv	a5,a1
    1158:	00070613          	mv	a2,a4
    115c:	00078693          	mv	a3,a5
    1160:	fd042503          	lw	a0,-48(s0)
    1164:	fd442583          	lw	a1,-44(s0)
    1168:	24d200ef          	jal	ra,21bb4 <__adddf3>
    116c:	00050713          	mv	a4,a0
    1170:	00058793          	mv	a5,a1
    1174:	fce42823          	sw	a4,-48(s0)
    1178:	fcf42a23          	sw	a5,-44(s0)
    for (int i = 0; i < length; i++) {
    117c:	fc842783          	lw	a5,-56(s0)
    1180:	00178793          	addi	a5,a5,1
    1184:	fcf42423          	sw	a5,-56(s0)
    1188:	fc842703          	lw	a4,-56(s0)
    118c:	fb842783          	lw	a5,-72(s0)
    1190:	f8f742e3          	blt	a4,a5,1114 <addGaussianNoise+0x34>
    }
    signalPower /= length;
    1194:	fb842503          	lw	a0,-72(s0)
    1198:	679220ef          	jal	ra,24010 <__floatsidf>
    119c:	00050713          	mv	a4,a0
    11a0:	00058793          	mv	a5,a1
    11a4:	00070613          	mv	a2,a4
    11a8:	00078693          	mv	a3,a5
    11ac:	fd042503          	lw	a0,-48(s0)
    11b0:	fd442583          	lw	a1,-44(s0)
    11b4:	2c8210ef          	jal	ra,2247c <__divdf3>
    11b8:	00050713          	mv	a4,a0
    11bc:	00058793          	mv	a5,a1
    11c0:	fce42823          	sw	a4,-48(s0)
    11c4:	fcf42a23          	sw	a5,-44(s0)

    double noisePower = signalPower / pow(10.0, snr / 10.0);
    11c8:	0002c7b7          	lui	a5,0x2c
    11cc:	9507a603          	lw	a2,-1712(a5) # 2b950 <__flash_rodata_start+0x3b0>
    11d0:	9547a683          	lw	a3,-1708(a5)
    11d4:	fb042503          	lw	a0,-80(s0)
    11d8:	fb442583          	lw	a1,-76(s0)
    11dc:	2a0210ef          	jal	ra,2247c <__divdf3>
    11e0:	00050713          	mv	a4,a0
    11e4:	00058793          	mv	a5,a1
    11e8:	00070613          	mv	a2,a4
    11ec:	00078693          	mv	a3,a5
    11f0:	0002c7b7          	lui	a5,0x2c
    11f4:	9507a703          	lw	a4,-1712(a5) # 2b950 <__flash_rodata_start+0x3b0>
    11f8:	9547a783          	lw	a5,-1708(a5)
    11fc:	00070513          	mv	a0,a4
    1200:	00078593          	mv	a1,a5
    1204:	475260ef          	jal	ra,27e78 <pow>
    1208:	00050713          	mv	a4,a0
    120c:	00058793          	mv	a5,a1
    1210:	00070613          	mv	a2,a4
    1214:	00078693          	mv	a3,a5
    1218:	fd042503          	lw	a0,-48(s0)
    121c:	fd442583          	lw	a1,-44(s0)
    1220:	25c210ef          	jal	ra,2247c <__divdf3>
    1224:	00050713          	mv	a4,a0
    1228:	00058793          	mv	a5,a1
    122c:	fce42c23          	sw	a4,-40(s0)
    1230:	fcf42e23          	sw	a5,-36(s0)
    double stddev = sqrt(noisePower);
    1234:	fd842503          	lw	a0,-40(s0)
    1238:	fdc42583          	lw	a1,-36(s0)
    123c:	5cd260ef          	jal	ra,28008 <sqrt>
    1240:	fea42023          	sw	a0,-32(s0)
    1244:	feb42223          	sw	a1,-28(s0)
    srand(time(NULL)); // Seed random number generator
    1248:	00000513          	li	a0,0
    124c:	691090ef          	jal	ra,b0dc <time>
    1250:	00050713          	mv	a4,a0
    1254:	00058793          	mv	a5,a1
    1258:	00070793          	mv	a5,a4
    125c:	00078513          	mv	a0,a5
    1260:	55c060ef          	jal	ra,77bc <srand>

    for (int i = 0; i < length; i++) {
    1264:	fc042623          	sw	zero,-52(s0)
    1268:	0f40006f          	j	135c <addGaussianNoise+0x27c>
        double noise = stddev * ((rand() / (double)RAND_MAX) * 2 - 1);
    126c:	564060ef          	jal	ra,77d0 <rand>
    1270:	00050793          	mv	a5,a0
    1274:	00078513          	mv	a0,a5
    1278:	599220ef          	jal	ra,24010 <__floatsidf>
    127c:	00050713          	mv	a4,a0
    1280:	00058793          	mv	a5,a1
    1284:	0002c6b7          	lui	a3,0x2c
    1288:	9586a603          	lw	a2,-1704(a3) # 2b958 <__flash_rodata_start+0x3b8>
    128c:	95c6a683          	lw	a3,-1700(a3)
    1290:	00070513          	mv	a0,a4
    1294:	00078593          	mv	a1,a5
    1298:	1e4210ef          	jal	ra,2247c <__divdf3>
    129c:	00050713          	mv	a4,a0
    12a0:	00058793          	mv	a5,a1
    12a4:	00070613          	mv	a2,a4
    12a8:	00078693          	mv	a3,a5
    12ac:	00070513          	mv	a0,a4
    12b0:	00078593          	mv	a1,a5
    12b4:	101200ef          	jal	ra,21bb4 <__adddf3>
    12b8:	00050713          	mv	a4,a0
    12bc:	00058793          	mv	a5,a1
    12c0:	00070513          	mv	a0,a4
    12c4:	00078593          	mv	a1,a5
    12c8:	0002c7b7          	lui	a5,0x2c
    12cc:	9607a603          	lw	a2,-1696(a5) # 2b960 <__flash_rodata_start+0x3c0>
    12d0:	9647a683          	lw	a3,-1692(a5)
    12d4:	2dc220ef          	jal	ra,235b0 <__subdf3>
    12d8:	00050713          	mv	a4,a0
    12dc:	00058793          	mv	a5,a1
    12e0:	00070613          	mv	a2,a4
    12e4:	00078693          	mv	a3,a5
    12e8:	fe042503          	lw	a0,-32(s0)
    12ec:	fe442583          	lw	a1,-28(s0)
    12f0:	39d210ef          	jal	ra,22e8c <__muldf3>
    12f4:	00050713          	mv	a4,a0
    12f8:	00058793          	mv	a5,a1
    12fc:	fee42423          	sw	a4,-24(s0)
    1300:	fef42623          	sw	a5,-20(s0)
        signal[i] += noise;
    1304:	fcc42783          	lw	a5,-52(s0)
    1308:	00379793          	slli	a5,a5,0x3
    130c:	fbc42703          	lw	a4,-68(s0)
    1310:	00f707b3          	add	a5,a4,a5
    1314:	0007a703          	lw	a4,0(a5)
    1318:	0047a783          	lw	a5,4(a5)
    131c:	fcc42683          	lw	a3,-52(s0)
    1320:	00369693          	slli	a3,a3,0x3
    1324:	fbc42603          	lw	a2,-68(s0)
    1328:	00d604b3          	add	s1,a2,a3
    132c:	fe842603          	lw	a2,-24(s0)
    1330:	fec42683          	lw	a3,-20(s0)
    1334:	00070513          	mv	a0,a4
    1338:	00078593          	mv	a1,a5
    133c:	079200ef          	jal	ra,21bb4 <__adddf3>
    1340:	00050713          	mv	a4,a0
    1344:	00058793          	mv	a5,a1
    1348:	00e4a023          	sw	a4,0(s1)
    134c:	00f4a223          	sw	a5,4(s1)
    for (int i = 0; i < length; i++) {
    1350:	fcc42783          	lw	a5,-52(s0)
    1354:	00178793          	addi	a5,a5,1
    1358:	fcf42623          	sw	a5,-52(s0)
    135c:	fcc42703          	lw	a4,-52(s0)
    1360:	fb842783          	lw	a5,-72(s0)
    1364:	f0f744e3          	blt	a4,a5,126c <addGaussianNoise+0x18c>
    }
}
    1368:	00000013          	nop
    136c:	00000013          	nop
    1370:	04c12083          	lw	ra,76(sp)
    1374:	04812403          	lw	s0,72(sp)
    1378:	04412483          	lw	s1,68(sp)
    137c:	05010113          	addi	sp,sp,80
    1380:	00008067          	ret

00001384 <calculatePRD>:




double calculatePRD(const double *original, const double *processed, int numSamples){
    1384:	fc010113          	addi	sp,sp,-64
    1388:	02112e23          	sw	ra,60(sp)
    138c:	02812c23          	sw	s0,56(sp)
    1390:	03212a23          	sw	s2,52(sp)
    1394:	03312823          	sw	s3,48(sp)
    1398:	04010413          	addi	s0,sp,64
    139c:	fca42623          	sw	a0,-52(s0)
    13a0:	fcb42423          	sw	a1,-56(s0)
    13a4:	fcc42223          	sw	a2,-60(s0)
    double sumSquaredDiff = 0.0, sumSquaredOriginal = 0.0;
    13a8:	fc042c23          	sw	zero,-40(s0)
    13ac:	fc042e23          	sw	zero,-36(s0)
    13b0:	fe042023          	sw	zero,-32(s0)
    13b4:	fe042223          	sw	zero,-28(s0)
    for (int i = 0; i < numSamples ; i++) {
    13b8:	fc042a23          	sw	zero,-44(s0)
    13bc:	1040006f          	j	14c0 <calculatePRD+0x13c>
        double diff = original[i] - processed[i];
    13c0:	fd442783          	lw	a5,-44(s0)
    13c4:	00379793          	slli	a5,a5,0x3
    13c8:	fcc42703          	lw	a4,-52(s0)
    13cc:	00f707b3          	add	a5,a4,a5
    13d0:	0007a703          	lw	a4,0(a5)
    13d4:	0047a783          	lw	a5,4(a5)
    13d8:	fd442683          	lw	a3,-44(s0)
    13dc:	00369693          	slli	a3,a3,0x3
    13e0:	fc842603          	lw	a2,-56(s0)
    13e4:	00d606b3          	add	a3,a2,a3
    13e8:	0006a603          	lw	a2,0(a3)
    13ec:	0046a683          	lw	a3,4(a3)
    13f0:	00070513          	mv	a0,a4
    13f4:	00078593          	mv	a1,a5
    13f8:	1b8220ef          	jal	ra,235b0 <__subdf3>
    13fc:	00050713          	mv	a4,a0
    1400:	00058793          	mv	a5,a1
    1404:	fee42423          	sw	a4,-24(s0)
    1408:	fef42623          	sw	a5,-20(s0)
        sumSquaredDiff += diff * diff;
    140c:	fe842603          	lw	a2,-24(s0)
    1410:	fec42683          	lw	a3,-20(s0)
    1414:	fe842503          	lw	a0,-24(s0)
    1418:	fec42583          	lw	a1,-20(s0)
    141c:	271210ef          	jal	ra,22e8c <__muldf3>
    1420:	00050713          	mv	a4,a0
    1424:	00058793          	mv	a5,a1
    1428:	00070613          	mv	a2,a4
    142c:	00078693          	mv	a3,a5
    1430:	fd842503          	lw	a0,-40(s0)
    1434:	fdc42583          	lw	a1,-36(s0)
    1438:	77c200ef          	jal	ra,21bb4 <__adddf3>
    143c:	00050713          	mv	a4,a0
    1440:	00058793          	mv	a5,a1
    1444:	fce42c23          	sw	a4,-40(s0)
    1448:	fcf42e23          	sw	a5,-36(s0)
        sumSquaredOriginal += original[i] * original[i];
    144c:	fd442783          	lw	a5,-44(s0)
    1450:	00379793          	slli	a5,a5,0x3
    1454:	fcc42703          	lw	a4,-52(s0)
    1458:	00f707b3          	add	a5,a4,a5
    145c:	0007a703          	lw	a4,0(a5)
    1460:	0047a783          	lw	a5,4(a5)
    1464:	fd442683          	lw	a3,-44(s0)
    1468:	00369693          	slli	a3,a3,0x3
    146c:	fcc42603          	lw	a2,-52(s0)
    1470:	00d606b3          	add	a3,a2,a3
    1474:	0006a603          	lw	a2,0(a3)
    1478:	0046a683          	lw	a3,4(a3)
    147c:	00070513          	mv	a0,a4
    1480:	00078593          	mv	a1,a5
    1484:	209210ef          	jal	ra,22e8c <__muldf3>
    1488:	00050713          	mv	a4,a0
    148c:	00058793          	mv	a5,a1
    1490:	00070613          	mv	a2,a4
    1494:	00078693          	mv	a3,a5
    1498:	fe042503          	lw	a0,-32(s0)
    149c:	fe442583          	lw	a1,-28(s0)
    14a0:	714200ef          	jal	ra,21bb4 <__adddf3>
    14a4:	00050713          	mv	a4,a0
    14a8:	00058793          	mv	a5,a1
    14ac:	fee42023          	sw	a4,-32(s0)
    14b0:	fef42223          	sw	a5,-28(s0)
    for (int i = 0; i < numSamples ; i++) {
    14b4:	fd442783          	lw	a5,-44(s0)
    14b8:	00178793          	addi	a5,a5,1
    14bc:	fcf42a23          	sw	a5,-44(s0)
    14c0:	fd442703          	lw	a4,-44(s0)
    14c4:	fc442783          	lw	a5,-60(s0)
    14c8:	eef74ce3          	blt	a4,a5,13c0 <calculatePRD+0x3c>
    }
    return 100.0 * (sqrt(sumSquaredDiff) / sqrt(sumSquaredOriginal));
    14cc:	fd842503          	lw	a0,-40(s0)
    14d0:	fdc42583          	lw	a1,-36(s0)
    14d4:	335260ef          	jal	ra,28008 <sqrt>
    14d8:	00050913          	mv	s2,a0
    14dc:	00058993          	mv	s3,a1
    14e0:	fe042503          	lw	a0,-32(s0)
    14e4:	fe442583          	lw	a1,-28(s0)
    14e8:	321260ef          	jal	ra,28008 <sqrt>
    14ec:	00050713          	mv	a4,a0
    14f0:	00058793          	mv	a5,a1
    14f4:	00070613          	mv	a2,a4
    14f8:	00078693          	mv	a3,a5
    14fc:	00090513          	mv	a0,s2
    1500:	00098593          	mv	a1,s3
    1504:	779200ef          	jal	ra,2247c <__divdf3>
    1508:	00050713          	mv	a4,a0
    150c:	00058793          	mv	a5,a1
    1510:	00070513          	mv	a0,a4
    1514:	00078593          	mv	a1,a5
    1518:	0002c7b7          	lui	a5,0x2c
    151c:	9687a603          	lw	a2,-1688(a5) # 2b968 <__flash_rodata_start+0x3c8>
    1520:	96c7a683          	lw	a3,-1684(a5)
    1524:	169210ef          	jal	ra,22e8c <__muldf3>
    1528:	00050713          	mv	a4,a0
    152c:	00058793          	mv	a5,a1
}
    1530:	00070513          	mv	a0,a4
    1534:	00078593          	mv	a1,a5
    1538:	03c12083          	lw	ra,60(sp)
    153c:	03812403          	lw	s0,56(sp)
    1540:	03412903          	lw	s2,52(sp)
    1544:	03012983          	lw	s3,48(sp)
    1548:	04010113          	addi	sp,sp,64
    154c:	00008067          	ret

00001550 <calculateSNRout>:

double calculateSNRout(const double *original, const double *processed, int numSamples) {
    1550:	fc010113          	addi	sp,sp,-64
    1554:	02112e23          	sw	ra,60(sp)
    1558:	02812c23          	sw	s0,56(sp)
    155c:	04010413          	addi	s0,sp,64
    1560:	fca42623          	sw	a0,-52(s0)
    1564:	fcb42423          	sw	a1,-56(s0)
    1568:	fcc42223          	sw	a2,-60(s0)
    double sumSquaredOriginal = 0.0, sumSquaredDiff = 0.0;
    156c:	fc042c23          	sw	zero,-40(s0)
    1570:	fc042e23          	sw	zero,-36(s0)
    1574:	fe042023          	sw	zero,-32(s0)
    1578:	fe042223          	sw	zero,-28(s0)
    for (int i = 0; i < numSamples ; i++) {
    157c:	fc042a23          	sw	zero,-44(s0)
    1580:	1040006f          	j	1684 <calculateSNRout+0x134>
        double diff = processed[i]  - original[i]  ;
    1584:	fd442783          	lw	a5,-44(s0)
    1588:	00379793          	slli	a5,a5,0x3
    158c:	fc842703          	lw	a4,-56(s0)
    1590:	00f707b3          	add	a5,a4,a5
    1594:	0007a703          	lw	a4,0(a5)
    1598:	0047a783          	lw	a5,4(a5)
    159c:	fd442683          	lw	a3,-44(s0)
    15a0:	00369693          	slli	a3,a3,0x3
    15a4:	fcc42603          	lw	a2,-52(s0)
    15a8:	00d606b3          	add	a3,a2,a3
    15ac:	0006a603          	lw	a2,0(a3)
    15b0:	0046a683          	lw	a3,4(a3)
    15b4:	00070513          	mv	a0,a4
    15b8:	00078593          	mv	a1,a5
    15bc:	7f5210ef          	jal	ra,235b0 <__subdf3>
    15c0:	00050713          	mv	a4,a0
    15c4:	00058793          	mv	a5,a1
    15c8:	fee42423          	sw	a4,-24(s0)
    15cc:	fef42623          	sw	a5,-20(s0)
        sumSquaredOriginal += original[i] * original[i];
    15d0:	fd442783          	lw	a5,-44(s0)
    15d4:	00379793          	slli	a5,a5,0x3
    15d8:	fcc42703          	lw	a4,-52(s0)
    15dc:	00f707b3          	add	a5,a4,a5
    15e0:	0007a703          	lw	a4,0(a5)
    15e4:	0047a783          	lw	a5,4(a5)
    15e8:	fd442683          	lw	a3,-44(s0)
    15ec:	00369693          	slli	a3,a3,0x3
    15f0:	fcc42603          	lw	a2,-52(s0)
    15f4:	00d606b3          	add	a3,a2,a3
    15f8:	0006a603          	lw	a2,0(a3)
    15fc:	0046a683          	lw	a3,4(a3)
    1600:	00070513          	mv	a0,a4
    1604:	00078593          	mv	a1,a5
    1608:	085210ef          	jal	ra,22e8c <__muldf3>
    160c:	00050713          	mv	a4,a0
    1610:	00058793          	mv	a5,a1
    1614:	00070613          	mv	a2,a4
    1618:	00078693          	mv	a3,a5
    161c:	fd842503          	lw	a0,-40(s0)
    1620:	fdc42583          	lw	a1,-36(s0)
    1624:	590200ef          	jal	ra,21bb4 <__adddf3>
    1628:	00050713          	mv	a4,a0
    162c:	00058793          	mv	a5,a1
    1630:	fce42c23          	sw	a4,-40(s0)
    1634:	fcf42e23          	sw	a5,-36(s0)
        sumSquaredDiff += diff * diff;
    1638:	fe842603          	lw	a2,-24(s0)
    163c:	fec42683          	lw	a3,-20(s0)
    1640:	fe842503          	lw	a0,-24(s0)
    1644:	fec42583          	lw	a1,-20(s0)
    1648:	045210ef          	jal	ra,22e8c <__muldf3>
    164c:	00050713          	mv	a4,a0
    1650:	00058793          	mv	a5,a1
    1654:	00070613          	mv	a2,a4
    1658:	00078693          	mv	a3,a5
    165c:	fe042503          	lw	a0,-32(s0)
    1660:	fe442583          	lw	a1,-28(s0)
    1664:	550200ef          	jal	ra,21bb4 <__adddf3>
    1668:	00050713          	mv	a4,a0
    166c:	00058793          	mv	a5,a1
    1670:	fee42023          	sw	a4,-32(s0)
    1674:	fef42223          	sw	a5,-28(s0)
    for (int i = 0; i < numSamples ; i++) {
    1678:	fd442783          	lw	a5,-44(s0)
    167c:	00178793          	addi	a5,a5,1
    1680:	fcf42a23          	sw	a5,-44(s0)
    1684:	fd442703          	lw	a4,-44(s0)
    1688:	fc442783          	lw	a5,-60(s0)
    168c:	eef74ce3          	blt	a4,a5,1584 <calculateSNRout+0x34>
    }
    return 10.0 * log10(sumSquaredOriginal / sumSquaredDiff);
    1690:	fe042603          	lw	a2,-32(s0)
    1694:	fe442683          	lw	a3,-28(s0)
    1698:	fd842503          	lw	a0,-40(s0)
    169c:	fdc42583          	lw	a1,-36(s0)
    16a0:	5dd200ef          	jal	ra,2247c <__divdf3>
    16a4:	00050713          	mv	a4,a0
    16a8:	00058793          	mv	a5,a1
    16ac:	00070513          	mv	a0,a4
    16b0:	00078593          	mv	a1,a5
    16b4:	6e0260ef          	jal	ra,27d94 <log10>
    16b8:	00050713          	mv	a4,a0
    16bc:	00058793          	mv	a5,a1
    16c0:	0002c6b7          	lui	a3,0x2c
    16c4:	9506a603          	lw	a2,-1712(a3) # 2b950 <__flash_rodata_start+0x3b0>
    16c8:	9546a683          	lw	a3,-1708(a3)
    16cc:	00070513          	mv	a0,a4
    16d0:	00078593          	mv	a1,a5
    16d4:	7b8210ef          	jal	ra,22e8c <__muldf3>
    16d8:	00050713          	mv	a4,a0
    16dc:	00058793          	mv	a5,a1
}
    16e0:	00070513          	mv	a0,a4
    16e4:	00078593          	mv	a1,a5
    16e8:	03c12083          	lw	ra,60(sp)
    16ec:	03812403          	lw	s0,56(sp)
    16f0:	04010113          	addi	sp,sp,64
    16f4:	00008067          	ret

000016f8 <calculateSNRimp>:

double calculateSNRimp(const double *original, const double *noise, const double *corrected, int numSamples) {
    16f8:	fb010113          	addi	sp,sp,-80
    16fc:	04112623          	sw	ra,76(sp)
    1700:	04812423          	sw	s0,72(sp)
    1704:	05010413          	addi	s0,sp,80
    1708:	faa42e23          	sw	a0,-68(s0)
    170c:	fab42c23          	sw	a1,-72(s0)
    1710:	fac42a23          	sw	a2,-76(s0)
    1714:	fad42823          	sw	a3,-80(s0)
    double sumSquaredNoise = 0.0, sumSquaredDiff = 0.0;
    1718:	fc042823          	sw	zero,-48(s0)
    171c:	fc042a23          	sw	zero,-44(s0)
    1720:	fc042c23          	sw	zero,-40(s0)
    1724:	fc042e23          	sw	zero,-36(s0)
    for (int i = 0; i < numSamples ; i++) {
    1728:	fc042623          	sw	zero,-52(s0)
    172c:	1280006f          	j	1854 <calculateSNRimp+0x15c>
        double diff = corrected[i] - original[i];
    1730:	fcc42783          	lw	a5,-52(s0)
    1734:	00379793          	slli	a5,a5,0x3
    1738:	fb442703          	lw	a4,-76(s0)
    173c:	00f707b3          	add	a5,a4,a5
    1740:	0007a703          	lw	a4,0(a5)
    1744:	0047a783          	lw	a5,4(a5)
    1748:	fcc42683          	lw	a3,-52(s0)
    174c:	00369693          	slli	a3,a3,0x3
    1750:	fbc42603          	lw	a2,-68(s0)
    1754:	00d606b3          	add	a3,a2,a3
    1758:	0006a603          	lw	a2,0(a3)
    175c:	0046a683          	lw	a3,4(a3)
    1760:	00070513          	mv	a0,a4
    1764:	00078593          	mv	a1,a5
    1768:	649210ef          	jal	ra,235b0 <__subdf3>
    176c:	00050713          	mv	a4,a0
    1770:	00058793          	mv	a5,a1
    1774:	fee42023          	sw	a4,-32(s0)
    1778:	fef42223          	sw	a5,-28(s0)
        double noiseDiff = noise[i] - original[i]; // Ici on utilise le bruit original
    177c:	fcc42783          	lw	a5,-52(s0)
    1780:	00379793          	slli	a5,a5,0x3
    1784:	fb842703          	lw	a4,-72(s0)
    1788:	00f707b3          	add	a5,a4,a5
    178c:	0007a703          	lw	a4,0(a5)
    1790:	0047a783          	lw	a5,4(a5)
    1794:	fcc42683          	lw	a3,-52(s0)
    1798:	00369693          	slli	a3,a3,0x3
    179c:	fbc42603          	lw	a2,-68(s0)
    17a0:	00d606b3          	add	a3,a2,a3
    17a4:	0006a603          	lw	a2,0(a3)
    17a8:	0046a683          	lw	a3,4(a3)
    17ac:	00070513          	mv	a0,a4
    17b0:	00078593          	mv	a1,a5
    17b4:	5fd210ef          	jal	ra,235b0 <__subdf3>
    17b8:	00050713          	mv	a4,a0
    17bc:	00058793          	mv	a5,a1
    17c0:	fee42423          	sw	a4,-24(s0)
    17c4:	fef42623          	sw	a5,-20(s0)
        sumSquaredNoise += noiseDiff * noiseDiff;
    17c8:	fe842603          	lw	a2,-24(s0)
    17cc:	fec42683          	lw	a3,-20(s0)
    17d0:	fe842503          	lw	a0,-24(s0)
    17d4:	fec42583          	lw	a1,-20(s0)
    17d8:	6b4210ef          	jal	ra,22e8c <__muldf3>
    17dc:	00050713          	mv	a4,a0
    17e0:	00058793          	mv	a5,a1
    17e4:	00070613          	mv	a2,a4
    17e8:	00078693          	mv	a3,a5
    17ec:	fd042503          	lw	a0,-48(s0)
    17f0:	fd442583          	lw	a1,-44(s0)
    17f4:	3c0200ef          	jal	ra,21bb4 <__adddf3>
    17f8:	00050713          	mv	a4,a0
    17fc:	00058793          	mv	a5,a1
    1800:	fce42823          	sw	a4,-48(s0)
    1804:	fcf42a23          	sw	a5,-44(s0)
        sumSquaredDiff += diff * diff;
    1808:	fe042603          	lw	a2,-32(s0)
    180c:	fe442683          	lw	a3,-28(s0)
    1810:	fe042503          	lw	a0,-32(s0)
    1814:	fe442583          	lw	a1,-28(s0)
    1818:	674210ef          	jal	ra,22e8c <__muldf3>
    181c:	00050713          	mv	a4,a0
    1820:	00058793          	mv	a5,a1
    1824:	00070613          	mv	a2,a4
    1828:	00078693          	mv	a3,a5
    182c:	fd842503          	lw	a0,-40(s0)
    1830:	fdc42583          	lw	a1,-36(s0)
    1834:	380200ef          	jal	ra,21bb4 <__adddf3>
    1838:	00050713          	mv	a4,a0
    183c:	00058793          	mv	a5,a1
    1840:	fce42c23          	sw	a4,-40(s0)
    1844:	fcf42e23          	sw	a5,-36(s0)
    for (int i = 0; i < numSamples ; i++) {
    1848:	fcc42783          	lw	a5,-52(s0)
    184c:	00178793          	addi	a5,a5,1
    1850:	fcf42623          	sw	a5,-52(s0)
    1854:	fcc42703          	lw	a4,-52(s0)
    1858:	fb042783          	lw	a5,-80(s0)
    185c:	ecf74ae3          	blt	a4,a5,1730 <calculateSNRimp+0x38>
    }
    return 10.0 * log10(sumSquaredNoise / sumSquaredDiff);
    1860:	fd842603          	lw	a2,-40(s0)
    1864:	fdc42683          	lw	a3,-36(s0)
    1868:	fd042503          	lw	a0,-48(s0)
    186c:	fd442583          	lw	a1,-44(s0)
    1870:	40d200ef          	jal	ra,2247c <__divdf3>
    1874:	00050713          	mv	a4,a0
    1878:	00058793          	mv	a5,a1
    187c:	00070513          	mv	a0,a4
    1880:	00078593          	mv	a1,a5
    1884:	510260ef          	jal	ra,27d94 <log10>
    1888:	00050713          	mv	a4,a0
    188c:	00058793          	mv	a5,a1
    1890:	0002c6b7          	lui	a3,0x2c
    1894:	9506a603          	lw	a2,-1712(a3) # 2b950 <__flash_rodata_start+0x3b0>
    1898:	9546a683          	lw	a3,-1708(a3)
    189c:	00070513          	mv	a0,a4
    18a0:	00078593          	mv	a1,a5
    18a4:	5e8210ef          	jal	ra,22e8c <__muldf3>
    18a8:	00050713          	mv	a4,a0
    18ac:	00058793          	mv	a5,a1
}
    18b0:	00070513          	mv	a0,a4
    18b4:	00078593          	mv	a1,a5
    18b8:	04c12083          	lw	ra,76(sp)
    18bc:	04812403          	lw	s0,72(sp)
    18c0:	05010113          	addi	sp,sp,80
    18c4:	00008067          	ret

000018c8 <calculateMSE>:


double calculateMSE(const double *actual, const double *predicted, int numSamples) { double sumSquaredError = 0.0;
    18c8:	fc010113          	addi	sp,sp,-64
    18cc:	02112e23          	sw	ra,60(sp)
    18d0:	02812c23          	sw	s0,56(sp)
    18d4:	04010413          	addi	s0,sp,64
    18d8:	fca42623          	sw	a0,-52(s0)
    18dc:	fcb42423          	sw	a1,-56(s0)
    18e0:	fcc42223          	sw	a2,-60(s0)
    18e4:	fe042023          	sw	zero,-32(s0)
    18e8:	fe042223          	sw	zero,-28(s0)
    for (int i = 0; i < numSamples; i++) {
    18ec:	fc042e23          	sw	zero,-36(s0)
    18f0:	09c0006f          	j	198c <calculateMSE+0xc4>
        double error = actual[i] - predicted[i];
    18f4:	fdc42783          	lw	a5,-36(s0)
    18f8:	00379793          	slli	a5,a5,0x3
    18fc:	fcc42703          	lw	a4,-52(s0)
    1900:	00f707b3          	add	a5,a4,a5
    1904:	0007a703          	lw	a4,0(a5)
    1908:	0047a783          	lw	a5,4(a5)
    190c:	fdc42683          	lw	a3,-36(s0)
    1910:	00369693          	slli	a3,a3,0x3
    1914:	fc842603          	lw	a2,-56(s0)
    1918:	00d606b3          	add	a3,a2,a3
    191c:	0006a603          	lw	a2,0(a3)
    1920:	0046a683          	lw	a3,4(a3)
    1924:	00070513          	mv	a0,a4
    1928:	00078593          	mv	a1,a5
    192c:	485210ef          	jal	ra,235b0 <__subdf3>
    1930:	00050713          	mv	a4,a0
    1934:	00058793          	mv	a5,a1
    1938:	fee42423          	sw	a4,-24(s0)
    193c:	fef42623          	sw	a5,-20(s0)
        sumSquaredError += error * error;
    1940:	fe842603          	lw	a2,-24(s0)
    1944:	fec42683          	lw	a3,-20(s0)
    1948:	fe842503          	lw	a0,-24(s0)
    194c:	fec42583          	lw	a1,-20(s0)
    1950:	53c210ef          	jal	ra,22e8c <__muldf3>
    1954:	00050713          	mv	a4,a0
    1958:	00058793          	mv	a5,a1
    195c:	00070613          	mv	a2,a4
    1960:	00078693          	mv	a3,a5
    1964:	fe042503          	lw	a0,-32(s0)
    1968:	fe442583          	lw	a1,-28(s0)
    196c:	248200ef          	jal	ra,21bb4 <__adddf3>
    1970:	00050713          	mv	a4,a0
    1974:	00058793          	mv	a5,a1
    1978:	fee42023          	sw	a4,-32(s0)
    197c:	fef42223          	sw	a5,-28(s0)
    for (int i = 0; i < numSamples; i++) {
    1980:	fdc42783          	lw	a5,-36(s0)
    1984:	00178793          	addi	a5,a5,1
    1988:	fcf42e23          	sw	a5,-36(s0)
    198c:	fdc42703          	lw	a4,-36(s0)
    1990:	fc442783          	lw	a5,-60(s0)
    1994:	f6f740e3          	blt	a4,a5,18f4 <calculateMSE+0x2c>
    }
    return sumSquaredError / numSamples;
    1998:	fc442503          	lw	a0,-60(s0)
    199c:	674220ef          	jal	ra,24010 <__floatsidf>
    19a0:	00050713          	mv	a4,a0
    19a4:	00058793          	mv	a5,a1
    19a8:	00070613          	mv	a2,a4
    19ac:	00078693          	mv	a3,a5
    19b0:	fe042503          	lw	a0,-32(s0)
    19b4:	fe442583          	lw	a1,-28(s0)
    19b8:	2c5200ef          	jal	ra,2247c <__divdf3>
    19bc:	00050713          	mv	a4,a0
    19c0:	00058793          	mv	a5,a1
}
    19c4:	00070513          	mv	a0,a4
    19c8:	00078593          	mv	a1,a5
    19cc:	03c12083          	lw	ra,60(sp)
    19d0:	03812403          	lw	s0,56(sp)
    19d4:	04010113          	addi	sp,sp,64
    19d8:	00008067          	ret

000019dc <removeFirstSamples>:

void removeFirstSamples(double *originalSignal, double *modifiedSignal, int numSamples, int removeLength) {
    19dc:	fd010113          	addi	sp,sp,-48
    19e0:	02812623          	sw	s0,44(sp)
    19e4:	03010413          	addi	s0,sp,48
    19e8:	fca42e23          	sw	a0,-36(s0)
    19ec:	fcb42c23          	sw	a1,-40(s0)
    19f0:	fcc42a23          	sw	a2,-44(s0)
    19f4:	fcd42823          	sw	a3,-48(s0)
    // Copier le signal original en supprimant les 'removeLength' premiers chantillons.
    for (int i = 0; i < numSamples - removeLength; i++) {
    19f8:	fe042623          	sw	zero,-20(s0)
    19fc:	0480006f          	j	1a44 <removeFirstSamples+0x68>
        modifiedSignal[i] = originalSignal[i + removeLength];
    1a00:	fec42703          	lw	a4,-20(s0)
    1a04:	fd042783          	lw	a5,-48(s0)
    1a08:	00f707b3          	add	a5,a4,a5
    1a0c:	00379793          	slli	a5,a5,0x3
    1a10:	fdc42703          	lw	a4,-36(s0)
    1a14:	00f707b3          	add	a5,a4,a5
    1a18:	fec42703          	lw	a4,-20(s0)
    1a1c:	00371713          	slli	a4,a4,0x3
    1a20:	fd842683          	lw	a3,-40(s0)
    1a24:	00e686b3          	add	a3,a3,a4
    1a28:	0007a703          	lw	a4,0(a5)
    1a2c:	0047a783          	lw	a5,4(a5)
    1a30:	00e6a023          	sw	a4,0(a3)
    1a34:	00f6a223          	sw	a5,4(a3)
    for (int i = 0; i < numSamples - removeLength; i++) {
    1a38:	fec42783          	lw	a5,-20(s0)
    1a3c:	00178793          	addi	a5,a5,1
    1a40:	fef42623          	sw	a5,-20(s0)
    1a44:	fd442703          	lw	a4,-44(s0)
    1a48:	fd042783          	lw	a5,-48(s0)
    1a4c:	40f707b3          	sub	a5,a4,a5
    1a50:	fec42703          	lw	a4,-20(s0)
    1a54:	faf746e3          	blt	a4,a5,1a00 <removeFirstSamples+0x24>
    }
}
    1a58:	00000013          	nop
    1a5c:	00000013          	nop
    1a60:	02c12403          	lw	s0,44(sp)
    1a64:	03010113          	addi	sp,sp,48
    1a68:	00008067          	ret

00001a6c <decalerGauche>:


void decalerGauche( double signal[], int taille, int nbDecalages) {
    1a6c:	fd010113          	addi	sp,sp,-48
    1a70:	02812623          	sw	s0,44(sp)
    1a74:	03010413          	addi	s0,sp,48
    1a78:	fca42e23          	sw	a0,-36(s0)
    1a7c:	fcb42c23          	sw	a1,-40(s0)
    1a80:	fcc42a23          	sw	a2,-44(s0)
    for (int j = 0; j < nbDecalages; j++) {
    1a84:	fe042423          	sw	zero,-24(s0)
    1a88:	08c0006f          	j	1b14 <decalerGauche+0xa8>
        for (int i = 0; i < taille - 1; i++) {
    1a8c:	fe042623          	sw	zero,-20(s0)
    1a90:	0440006f          	j	1ad4 <decalerGauche+0x68>
            signal[i] = signal[i + 1];
    1a94:	fec42783          	lw	a5,-20(s0)
    1a98:	00178793          	addi	a5,a5,1
    1a9c:	00379793          	slli	a5,a5,0x3
    1aa0:	fdc42703          	lw	a4,-36(s0)
    1aa4:	00f707b3          	add	a5,a4,a5
    1aa8:	fec42703          	lw	a4,-20(s0)
    1aac:	00371713          	slli	a4,a4,0x3
    1ab0:	fdc42683          	lw	a3,-36(s0)
    1ab4:	00e686b3          	add	a3,a3,a4
    1ab8:	0007a703          	lw	a4,0(a5)
    1abc:	0047a783          	lw	a5,4(a5)
    1ac0:	00e6a023          	sw	a4,0(a3)
    1ac4:	00f6a223          	sw	a5,4(a3)
        for (int i = 0; i < taille - 1; i++) {
    1ac8:	fec42783          	lw	a5,-20(s0)
    1acc:	00178793          	addi	a5,a5,1
    1ad0:	fef42623          	sw	a5,-20(s0)
    1ad4:	fd842783          	lw	a5,-40(s0)
    1ad8:	fff78793          	addi	a5,a5,-1
    1adc:	fec42703          	lw	a4,-20(s0)
    1ae0:	faf74ae3          	blt	a4,a5,1a94 <decalerGauche+0x28>
        }
        signal[taille - 1] = 0;
    1ae4:	fd842703          	lw	a4,-40(s0)
    1ae8:	200007b7          	lui	a5,0x20000
    1aec:	fff78793          	addi	a5,a5,-1 # 1fffffff <__alt_data_end+0x1ff85edf>
    1af0:	00f707b3          	add	a5,a4,a5
    1af4:	00379793          	slli	a5,a5,0x3
    1af8:	fdc42703          	lw	a4,-36(s0)
    1afc:	00f707b3          	add	a5,a4,a5
    1b00:	0007a023          	sw	zero,0(a5)
    1b04:	0007a223          	sw	zero,4(a5)
    for (int j = 0; j < nbDecalages; j++) {
    1b08:	fe842783          	lw	a5,-24(s0)
    1b0c:	00178793          	addi	a5,a5,1
    1b10:	fef42423          	sw	a5,-24(s0)
    1b14:	fe842703          	lw	a4,-24(s0)
    1b18:	fd442783          	lw	a5,-44(s0)
    1b1c:	f6f748e3          	blt	a4,a5,1a8c <decalerGauche+0x20>
    }
}
    1b20:	00000013          	nop
    1b24:	00000013          	nop
    1b28:	02c12403          	lw	s0,44(sp)
    1b2c:	03010113          	addi	sp,sp,48
    1b30:	00008067          	ret

00001b34 <main>:



int main() {
    1b34:	81010113          	addi	sp,sp,-2032
    1b38:	7e112623          	sw	ra,2028(sp)
    1b3c:	7e812423          	sw	s0,2024(sp)
    1b40:	7e912223          	sw	s1,2020(sp)
    1b44:	7f212023          	sw	s2,2016(sp)
    1b48:	7d312e23          	sw	s3,2012(sp)
    1b4c:	7d412c23          	sw	s4,2008(sp)
    1b50:	7d512a23          	sw	s5,2004(sp)
    1b54:	7d612823          	sw	s6,2000(sp)
    1b58:	7d712623          	sw	s7,1996(sp)
    1b5c:	7d812423          	sw	s8,1992(sp)
    1b60:	7d912223          	sw	s9,1988(sp)
    1b64:	7da12023          	sw	s10,1984(sp)
    1b68:	7bb12e23          	sw	s11,1980(sp)
    1b6c:	7f010413          	addi	s0,sp,2032
    1b70:	fffb92b7          	lui	t0,0xfffb9
    1b74:	88028293          	addi	t0,t0,-1920 # fffb8880 <__alt_data_end+0xfff3e760>
    1b78:	00510133          	add	sp,sp,t0
    1b7c:	000317b7          	lui	a5,0x31
    1b80:	dbc7a703          	lw	a4,-580(a5) # 30dbc <__stack_chk_guard>
    1b84:	fae42e23          	sw	a4,-68(s0)
    1b88:	00000713          	li	a4,0
    1b8c:	00010793          	mv	a5,sp
    1b90:	fffb8737          	lui	a4,0xfffb8
    1b94:	09470713          	addi	a4,a4,148 # fffb8094 <__alt_data_end+0xfff3df74>
    1b98:	00870733          	add	a4,a4,s0
    1b9c:	00f72023          	sw	a5,0(a4)

     start2 = clock();
    1ba0:	2f4030ef          	jal	ra,4e94 <clock>
    1ba4:	00050713          	mv	a4,a0
    1ba8:	000317b7          	lui	a5,0x31
    1bac:	d4e7a023          	sw	a4,-704(a5) # 30d40 <start2>
    double modifiedECGData2[3708];
    double modifiedECGData3[3708];
    double modifiedECGData4[3708];


    int numSamples = readECGDataFromCSV("101min.csv", dataTable, MAX_SAMPLES);
    1bb0:	fffb87b7          	lui	a5,0xfffb8
    1bb4:	fc078793          	addi	a5,a5,-64 # fffb7fc0 <__alt_data_end+0xfff3dea0>
    1bb8:	008784b3          	add	s1,a5,s0
    1bbc:	fffb87b7          	lui	a5,0xfffb8
    1bc0:	35878793          	addi	a5,a5,856 # fffb8358 <__alt_data_end+0xfff3e238>
    1bc4:	fc078793          	addi	a5,a5,-64
    1bc8:	00878733          	add	a4,a5,s0
    1bcc:	000017b7          	lui	a5,0x1
    1bd0:	e1078613          	addi	a2,a5,-496 # e10 <applyADTF+0x2b8>
    1bd4:	00070593          	mv	a1,a4
    1bd8:	0002b7b7          	lui	a5,0x2b
    1bdc:	5d478513          	addi	a0,a5,1492 # 2b5d4 <__flash_rodata_start+0x34>
    1be0:	edcfe0ef          	jal	ra,2bc <readECGDataFromCSV>
    1be4:	16a4a623          	sw	a0,364(s1)


    // Convertir les donnes de la structure en tableau de doubles pour manipulation.
    for (int i = 0; i < numSamples; i++) {
    1be8:	fffb87b7          	lui	a5,0xfffb8
    1bec:	fc078793          	addi	a5,a5,-64 # fffb7fc0 <__alt_data_end+0xfff3dea0>
    1bf0:	008787b3          	add	a5,a5,s0
    1bf4:	1407ac23          	sw	zero,344(a5)
    1bf8:	0d80006f          	j	1cd0 <main+0x19c>
        ecgData[i] = dataTable[i].x_MLII_;
    1bfc:	fffb87b7          	lui	a5,0xfffb8
    1c00:	fc078793          	addi	a5,a5,-64 # fffb7fc0 <__alt_data_end+0xfff3dea0>
    1c04:	00878733          	add	a4,a5,s0
    1c08:	fffb87b7          	lui	a5,0xfffb8
    1c0c:	fc078793          	addi	a5,a5,-64 # fffb7fc0 <__alt_data_end+0xfff3dea0>
    1c10:	008787b3          	add	a5,a5,s0
    1c14:	1587a783          	lw	a5,344(a5)
    1c18:	00379793          	slli	a5,a5,0x3
    1c1c:	00f707b3          	add	a5,a4,a5
    1c20:	3587a603          	lw	a2,856(a5)
    1c24:	35c7a683          	lw	a3,860(a5)
    1c28:	fffbf7b7          	lui	a5,0xfffbf
    1c2c:	fc078793          	addi	a5,a5,-64 # fffbefc0 <__alt_data_end+0xfff44ea0>
    1c30:	00878733          	add	a4,a5,s0
    1c34:	fffb87b7          	lui	a5,0xfffb8
    1c38:	fc078793          	addi	a5,a5,-64 # fffb7fc0 <__alt_data_end+0xfff3dea0>
    1c3c:	008787b3          	add	a5,a5,s0
    1c40:	1587a783          	lw	a5,344(a5)
    1c44:	00379793          	slli	a5,a5,0x3
    1c48:	00f707b3          	add	a5,a4,a5
    1c4c:	3cc7ac23          	sw	a2,984(a5)
    1c50:	3cd7ae23          	sw	a3,988(a5)
                ecgoriginal[i] = dataTable[i].x_MLII_;
    1c54:	fffb87b7          	lui	a5,0xfffb8
    1c58:	fc078793          	addi	a5,a5,-64 # fffb7fc0 <__alt_data_end+0xfff3dea0>
    1c5c:	00878733          	add	a4,a5,s0
    1c60:	fffb87b7          	lui	a5,0xfffb8
    1c64:	fc078793          	addi	a5,a5,-64 # fffb7fc0 <__alt_data_end+0xfff3dea0>
    1c68:	008787b3          	add	a5,a5,s0
    1c6c:	1587a783          	lw	a5,344(a5)
    1c70:	00379793          	slli	a5,a5,0x3
    1c74:	00f707b3          	add	a5,a4,a5
    1c78:	3587a603          	lw	a2,856(a5)
    1c7c:	35c7a683          	lw	a3,860(a5)
    1c80:	fffc67b7          	lui	a5,0xfffc6
    1c84:	fc078793          	addi	a5,a5,-64 # fffc5fc0 <__alt_data_end+0xfff4bea0>
    1c88:	00878733          	add	a4,a5,s0
    1c8c:	fffb87b7          	lui	a5,0xfffb8
    1c90:	fc078793          	addi	a5,a5,-64 # fffb7fc0 <__alt_data_end+0xfff3dea0>
    1c94:	008787b3          	add	a5,a5,s0
    1c98:	1587a783          	lw	a5,344(a5)
    1c9c:	00379793          	slli	a5,a5,0x3
    1ca0:	00f707b3          	add	a5,a4,a5
    1ca4:	44c7ac23          	sw	a2,1112(a5)
    1ca8:	44d7ae23          	sw	a3,1116(a5)
    for (int i = 0; i < numSamples; i++) {
    1cac:	fffb87b7          	lui	a5,0xfffb8
    1cb0:	fc078793          	addi	a5,a5,-64 # fffb7fc0 <__alt_data_end+0xfff3dea0>
    1cb4:	00878733          	add	a4,a5,s0
    1cb8:	fffb87b7          	lui	a5,0xfffb8
    1cbc:	fc078793          	addi	a5,a5,-64 # fffb7fc0 <__alt_data_end+0xfff3dea0>
    1cc0:	008787b3          	add	a5,a5,s0
    1cc4:	1587a783          	lw	a5,344(a5)
    1cc8:	00178793          	addi	a5,a5,1
    1ccc:	14f72c23          	sw	a5,344(a4)
    1cd0:	fffb87b7          	lui	a5,0xfffb8
    1cd4:	fc078793          	addi	a5,a5,-64 # fffb7fc0 <__alt_data_end+0xfff3dea0>
    1cd8:	00878733          	add	a4,a5,s0
    1cdc:	fffb87b7          	lui	a5,0xfffb8
    1ce0:	fc078793          	addi	a5,a5,-64 # fffb7fc0 <__alt_data_end+0xfff3dea0>
    1ce4:	008787b3          	add	a5,a5,s0
    1ce8:	15872703          	lw	a4,344(a4)
    1cec:	16c7a783          	lw	a5,364(a5)
    1cf0:	f0f746e3          	blt	a4,a5,1bfc <main+0xc8>

    }
    saveToCSV("ecg.csv", ecgData, numSamples );
    1cf4:	fffb87b7          	lui	a5,0xfffb8
    1cf8:	fc078793          	addi	a5,a5,-64 # fffb7fc0 <__alt_data_end+0xfff3dea0>
    1cfc:	00878733          	add	a4,a5,s0
    1d00:	fffbf7b7          	lui	a5,0xfffbf
    1d04:	3d878793          	addi	a5,a5,984 # fffbf3d8 <__alt_data_end+0xfff452b8>
    1d08:	fc078793          	addi	a5,a5,-64
    1d0c:	008787b3          	add	a5,a5,s0
    1d10:	16c72603          	lw	a2,364(a4)
    1d14:	00078593          	mv	a1,a5
    1d18:	0002b7b7          	lui	a5,0x2b
    1d1c:	5e078513          	addi	a0,a5,1504 # 2b5e0 <__flash_rodata_start+0x40>
    1d20:	f9cfe0ef          	jal	ra,4bc <saveToCSV>


    addGaussianNoise(ecgData, numSamples, 5);  // Adding 5 dB SNR
    1d24:	0002c7b7          	lui	a5,0x2c
    1d28:	9707a603          	lw	a2,-1680(a5) # 2b970 <__flash_rodata_start+0x3d0>
    1d2c:	9747a683          	lw	a3,-1676(a5)
    1d30:	fffb87b7          	lui	a5,0xfffb8
    1d34:	fc078793          	addi	a5,a5,-64 # fffb7fc0 <__alt_data_end+0xfff3dea0>
    1d38:	00878733          	add	a4,a5,s0
    1d3c:	fffbf7b7          	lui	a5,0xfffbf
    1d40:	3d878793          	addi	a5,a5,984 # fffbf3d8 <__alt_data_end+0xfff452b8>
    1d44:	fc078793          	addi	a5,a5,-64
    1d48:	008787b3          	add	a5,a5,s0
    1d4c:	16c72583          	lw	a1,364(a4)
    1d50:	00078513          	mv	a0,a5
    1d54:	b8cff0ef          	jal	ra,10e0 <addGaussianNoise>



    saveToCSV("noisedecgg.csv", ecgData, numSamples );
    1d58:	fffb87b7          	lui	a5,0xfffb8
    1d5c:	fc078793          	addi	a5,a5,-64 # fffb7fc0 <__alt_data_end+0xfff3dea0>
    1d60:	00878733          	add	a4,a5,s0
    1d64:	fffbf7b7          	lui	a5,0xfffbf
    1d68:	3d878793          	addi	a5,a5,984 # fffbf3d8 <__alt_data_end+0xfff452b8>
    1d6c:	fc078793          	addi	a5,a5,-64
    1d70:	008787b3          	add	a5,a5,s0
    1d74:	16c72603          	lw	a2,364(a4)
    1d78:	00078593          	mv	a1,a5
    1d7c:	0002b7b7          	lui	a5,0x2b
    1d80:	5e878513          	addi	a0,a5,1512 # 2b5e8 <__flash_rodata_start+0x48>
    1d84:	f38fe0ef          	jal	ra,4bc <saveToCSV>


    // Define the DWT filters
    double Lo_D[] = {-0.0011, 0.0048, 0.0006, -0.0316, 0.0275, 0.0975, -0.1298, -0.2263, 0.3153, 0.7511, 0.4946, 0.1115};
    1d88:	fffb87b7          	lui	a5,0xfffb8
    1d8c:	fc078793          	addi	a5,a5,-64 # fffb7fc0 <__alt_data_end+0xfff3dea0>
    1d90:	00878733          	add	a4,a5,s0
    1d94:	0002b7b7          	lui	a5,0x2b
    1d98:	7d078793          	addi	a5,a5,2000 # 2b7d0 <__flash_rodata_start+0x230>
    1d9c:	1d870713          	addi	a4,a4,472
    1da0:	00078693          	mv	a3,a5
    1da4:	06000793          	li	a5,96
    1da8:	00078613          	mv	a2,a5
    1dac:	00068593          	mv	a1,a3
    1db0:	00070513          	mv	a0,a4
    1db4:	540050ef          	jal	ra,72f4 <memcpy>
    double Hi_D[] = {-0.1115, 0.4946, -0.7511, 0.3153, 0.2263, -0.1298, -0.0975, 0.0275, 0.0316, 0.0006, -0.0048, -0.0011};
    1db8:	fffb87b7          	lui	a5,0xfffb8
    1dbc:	fc078793          	addi	a5,a5,-64 # fffb7fc0 <__alt_data_end+0xfff3dea0>
    1dc0:	00878733          	add	a4,a5,s0
    1dc4:	0002c7b7          	lui	a5,0x2c
    1dc8:	83078793          	addi	a5,a5,-2000 # 2b830 <__flash_rodata_start+0x290>
    1dcc:	23870713          	addi	a4,a4,568
    1dd0:	00078693          	mv	a3,a5
    1dd4:	06000793          	li	a5,96
    1dd8:	00078613          	mv	a2,a5
    1ddc:	00068593          	mv	a1,a3
    1de0:	00070513          	mv	a0,a4
    1de4:	510050ef          	jal	ra,72f4 <memcpy>
    double Lo_R[] = {0.1115, 0.4946, 0.7511, 0.3153, -0.2263, -0.1298, 0.0975, 0.0275, -0.0316, 0.0006, 0.0048, -0.0011};
    1de8:	fffb87b7          	lui	a5,0xfffb8
    1dec:	fc078793          	addi	a5,a5,-64 # fffb7fc0 <__alt_data_end+0xfff3dea0>
    1df0:	00878733          	add	a4,a5,s0
    1df4:	0002c7b7          	lui	a5,0x2c
    1df8:	89078793          	addi	a5,a5,-1904 # 2b890 <__flash_rodata_start+0x2f0>
    1dfc:	29870713          	addi	a4,a4,664
    1e00:	00078693          	mv	a3,a5
    1e04:	06000793          	li	a5,96
    1e08:	00078613          	mv	a2,a5
    1e0c:	00068593          	mv	a1,a3
    1e10:	00070513          	mv	a0,a4
    1e14:	4e0050ef          	jal	ra,72f4 <memcpy>
    double Hi_R[] = {-0.0011, -0.0048, 0.0006, 0.0316, 0.0275, -0.0975, -0.1298, 0.2263, 0.3153, -0.7511, 0.4946, -0.1115};
    1e18:	fffb87b7          	lui	a5,0xfffb8
    1e1c:	fc078793          	addi	a5,a5,-64 # fffb7fc0 <__alt_data_end+0xfff3dea0>
    1e20:	00878733          	add	a4,a5,s0
    1e24:	0002c7b7          	lui	a5,0x2c
    1e28:	8f078793          	addi	a5,a5,-1808 # 2b8f0 <__flash_rodata_start+0x350>
    1e2c:	2f870713          	addi	a4,a4,760
    1e30:	00078693          	mv	a3,a5
    1e34:	06000793          	li	a5,96
    1e38:	00078613          	mv	a2,a5
    1e3c:	00068593          	mv	a1,a3
    1e40:	00070513          	mv	a0,a4
    1e44:	4b0050ef          	jal	ra,72f4 <memcpy>

    // Allocate memory for DWT outputs
    double A1[(numSamples + FILTER_LENGTH - 1) / 2], D1[(numSamples + FILTER_LENGTH - 1) / 2], A2[((numSamples + FILTER_LENGTH - 1)/ 2 + FILTER_LENGTH - 1) / 2], D2[((numSamples + FILTER_LENGTH - 1)/ 2 + FILTER_LENGTH - 1) / 2];
    1e48:	fffb87b7          	lui	a5,0xfffb8
    1e4c:	fc078793          	addi	a5,a5,-64 # fffb7fc0 <__alt_data_end+0xfff3dea0>
    1e50:	008787b3          	add	a5,a5,s0
    1e54:	16c7a783          	lw	a5,364(a5)
    1e58:	00b78713          	addi	a4,a5,11
    1e5c:	01f75793          	srli	a5,a4,0x1f
    1e60:	00e787b3          	add	a5,a5,a4
    1e64:	4017d793          	srai	a5,a5,0x1
    1e68:	00078693          	mv	a3,a5
    1e6c:	fff68793          	addi	a5,a3,-1
    1e70:	00078713          	mv	a4,a5
    1e74:	fffb87b7          	lui	a5,0xfffb8
    1e78:	fc078793          	addi	a5,a5,-64 # fffb7fc0 <__alt_data_end+0xfff3dea0>
    1e7c:	008787b3          	add	a5,a5,s0
    1e80:	16e7a823          	sw	a4,368(a5)
    1e84:	00068793          	mv	a5,a3
    1e88:	00078b13          	mv	s6,a5
    1e8c:	00000b93          	li	s7,0
    1e90:	01ab5793          	srli	a5,s6,0x1a
    1e94:	006b9993          	slli	s3,s7,0x6
    1e98:	0137e9b3          	or	s3,a5,s3
    1e9c:	006b1913          	slli	s2,s6,0x6
    1ea0:	00068793          	mv	a5,a3
    1ea4:	00078c13          	mv	s8,a5
    1ea8:	00000c93          	li	s9,0
    1eac:	01ac5793          	srli	a5,s8,0x1a
    1eb0:	006c9a93          	slli	s5,s9,0x6
    1eb4:	0157eab3          	or	s5,a5,s5
    1eb8:	006c1a13          	slli	s4,s8,0x6
    1ebc:	00068793          	mv	a5,a3
    1ec0:	00379713          	slli	a4,a5,0x3
    1ec4:	fffb87b7          	lui	a5,0xfffb8
    1ec8:	fc078793          	addi	a5,a5,-64 # fffb7fc0 <__alt_data_end+0xfff3dea0>
    1ecc:	008786b3          	add	a3,a5,s0
    1ed0:	00f70793          	addi	a5,a4,15
    1ed4:	0047d793          	srli	a5,a5,0x4
    1ed8:	00479793          	slli	a5,a5,0x4
    1edc:	40f10133          	sub	sp,sp,a5
    1ee0:	00010793          	mv	a5,sp
    1ee4:	00778793          	addi	a5,a5,7
    1ee8:	0037d793          	srli	a5,a5,0x3
    1eec:	00379793          	slli	a5,a5,0x3
    1ef0:	16f6aa23          	sw	a5,372(a3)
    1ef4:	fffb87b7          	lui	a5,0xfffb8
    1ef8:	fc078793          	addi	a5,a5,-64 # fffb7fc0 <__alt_data_end+0xfff3dea0>
    1efc:	008787b3          	add	a5,a5,s0
    1f00:	16c7a783          	lw	a5,364(a5)
    1f04:	00b78713          	addi	a4,a5,11
    1f08:	01f75793          	srli	a5,a4,0x1f
    1f0c:	00e787b3          	add	a5,a5,a4
    1f10:	4017d793          	srai	a5,a5,0x1
    1f14:	00078693          	mv	a3,a5
    1f18:	fff68793          	addi	a5,a3,-1
    1f1c:	00078713          	mv	a4,a5
    1f20:	fffb87b7          	lui	a5,0xfffb8
    1f24:	fc078793          	addi	a5,a5,-64 # fffb7fc0 <__alt_data_end+0xfff3dea0>
    1f28:	008787b3          	add	a5,a5,s0
    1f2c:	16e7ac23          	sw	a4,376(a5)
    1f30:	00068793          	mv	a5,a3
    1f34:	fffb8537          	lui	a0,0xfffb8
    1f38:	0d050713          	addi	a4,a0,208 # fffb80d0 <__alt_data_end+0xfff3dfb0>
    1f3c:	00870733          	add	a4,a4,s0
    1f40:	00f72023          	sw	a5,0(a4)
    1f44:	0d450793          	addi	a5,a0,212
    1f48:	008787b3          	add	a5,a5,s0
    1f4c:	0007a023          	sw	zero,0(a5)
    1f50:	0d050793          	addi	a5,a0,208
    1f54:	008787b3          	add	a5,a5,s0
    1f58:	0007a583          	lw	a1,0(a5)
    1f5c:	0047a603          	lw	a2,4(a5)
    1f60:	00058793          	mv	a5,a1
    1f64:	01a7d793          	srli	a5,a5,0x1a
    1f68:	00060713          	mv	a4,a2
    1f6c:	00671d93          	slli	s11,a4,0x6
    1f70:	01b7edb3          	or	s11,a5,s11
    1f74:	00058793          	mv	a5,a1
    1f78:	00679d13          	slli	s10,a5,0x6
    1f7c:	00068793          	mv	a5,a3
    1f80:	0c850713          	addi	a4,a0,200
    1f84:	00870733          	add	a4,a4,s0
    1f88:	00f72023          	sw	a5,0(a4)
    1f8c:	0cc50793          	addi	a5,a0,204
    1f90:	008787b3          	add	a5,a5,s0
    1f94:	0007a023          	sw	zero,0(a5)
    1f98:	0c850793          	addi	a5,a0,200
    1f9c:	008787b3          	add	a5,a5,s0
    1fa0:	0007a583          	lw	a1,0(a5)
    1fa4:	0047a603          	lw	a2,4(a5)
    1fa8:	00058793          	mv	a5,a1
    1fac:	01a7d793          	srli	a5,a5,0x1a
    1fb0:	00060713          	mv	a4,a2
    1fb4:	00671713          	slli	a4,a4,0x6
    1fb8:	10c50813          	addi	a6,a0,268
    1fbc:	00880833          	add	a6,a6,s0
    1fc0:	00e82023          	sw	a4,0(a6)
    1fc4:	10c50713          	addi	a4,a0,268
    1fc8:	00870733          	add	a4,a4,s0
    1fcc:	00072703          	lw	a4,0(a4)
    1fd0:	00e7e7b3          	or	a5,a5,a4
    1fd4:	10c50713          	addi	a4,a0,268
    1fd8:	00870733          	add	a4,a4,s0
    1fdc:	00f72023          	sw	a5,0(a4)
    1fe0:	00058793          	mv	a5,a1
    1fe4:	00679793          	slli	a5,a5,0x6
    1fe8:	00050613          	mv	a2,a0
    1fec:	10860713          	addi	a4,a2,264
    1ff0:	00870733          	add	a4,a4,s0
    1ff4:	00f72023          	sw	a5,0(a4)
    1ff8:	00068793          	mv	a5,a3
    1ffc:	00379713          	slli	a4,a5,0x3
    2000:	fffb87b7          	lui	a5,0xfffb8
    2004:	fc078793          	addi	a5,a5,-64 # fffb7fc0 <__alt_data_end+0xfff3dea0>
    2008:	008787b3          	add	a5,a5,s0
    200c:	00f70713          	addi	a4,a4,15
    2010:	00475713          	srli	a4,a4,0x4
    2014:	00471713          	slli	a4,a4,0x4
    2018:	40e10133          	sub	sp,sp,a4
    201c:	00010713          	mv	a4,sp
    2020:	00770713          	addi	a4,a4,7
    2024:	00375713          	srli	a4,a4,0x3
    2028:	00371713          	slli	a4,a4,0x3
    202c:	16e7ae23          	sw	a4,380(a5)
    2030:	fffb87b7          	lui	a5,0xfffb8
    2034:	fc078793          	addi	a5,a5,-64 # fffb7fc0 <__alt_data_end+0xfff3dea0>
    2038:	008787b3          	add	a5,a5,s0
    203c:	16c7a783          	lw	a5,364(a5)
    2040:	00b78793          	addi	a5,a5,11
    2044:	01f7d713          	srli	a4,a5,0x1f
    2048:	00f707b3          	add	a5,a4,a5
    204c:	4017d793          	srai	a5,a5,0x1
    2050:	00b78793          	addi	a5,a5,11
    2054:	01f7d713          	srli	a4,a5,0x1f
    2058:	00f707b3          	add	a5,a4,a5
    205c:	4017d793          	srai	a5,a5,0x1
    2060:	00078713          	mv	a4,a5
    2064:	fff70793          	addi	a5,a4,-1
    2068:	00078693          	mv	a3,a5
    206c:	fffb87b7          	lui	a5,0xfffb8
    2070:	fc078793          	addi	a5,a5,-64 # fffb7fc0 <__alt_data_end+0xfff3dea0>
    2074:	008787b3          	add	a5,a5,s0
    2078:	18d7a023          	sw	a3,384(a5)
    207c:	00070793          	mv	a5,a4
    2080:	00060513          	mv	a0,a2
    2084:	0c050693          	addi	a3,a0,192
    2088:	008686b3          	add	a3,a3,s0
    208c:	00f6a023          	sw	a5,0(a3)
    2090:	0c450793          	addi	a5,a0,196
    2094:	008787b3          	add	a5,a5,s0
    2098:	0007a023          	sw	zero,0(a5)
    209c:	0c050793          	addi	a5,a0,192
    20a0:	008787b3          	add	a5,a5,s0
    20a4:	0007a583          	lw	a1,0(a5)
    20a8:	0047a603          	lw	a2,4(a5)
    20ac:	00058793          	mv	a5,a1
    20b0:	01a7d793          	srli	a5,a5,0x1a
    20b4:	00060693          	mv	a3,a2
    20b8:	00669693          	slli	a3,a3,0x6
    20bc:	10450813          	addi	a6,a0,260
    20c0:	00880833          	add	a6,a6,s0
    20c4:	00d82023          	sw	a3,0(a6)
    20c8:	10450693          	addi	a3,a0,260
    20cc:	008686b3          	add	a3,a3,s0
    20d0:	0006a683          	lw	a3,0(a3)
    20d4:	00d7e7b3          	or	a5,a5,a3
    20d8:	10450693          	addi	a3,a0,260
    20dc:	008686b3          	add	a3,a3,s0
    20e0:	00f6a023          	sw	a5,0(a3)
    20e4:	00058793          	mv	a5,a1
    20e8:	00679793          	slli	a5,a5,0x6
    20ec:	10050693          	addi	a3,a0,256
    20f0:	008686b3          	add	a3,a3,s0
    20f4:	00f6a023          	sw	a5,0(a3)
    20f8:	00070793          	mv	a5,a4
    20fc:	0b850693          	addi	a3,a0,184
    2100:	008686b3          	add	a3,a3,s0
    2104:	00f6a023          	sw	a5,0(a3)
    2108:	0bc50793          	addi	a5,a0,188
    210c:	008787b3          	add	a5,a5,s0
    2110:	0007a023          	sw	zero,0(a5)
    2114:	0b850793          	addi	a5,a0,184
    2118:	008787b3          	add	a5,a5,s0
    211c:	0007a583          	lw	a1,0(a5)
    2120:	0047a603          	lw	a2,4(a5)
    2124:	00058793          	mv	a5,a1
    2128:	01a7d793          	srli	a5,a5,0x1a
    212c:	00060693          	mv	a3,a2
    2130:	00669693          	slli	a3,a3,0x6
    2134:	0fc50813          	addi	a6,a0,252
    2138:	00880833          	add	a6,a6,s0
    213c:	00d82023          	sw	a3,0(a6)
    2140:	0fc50693          	addi	a3,a0,252
    2144:	008686b3          	add	a3,a3,s0
    2148:	0006a683          	lw	a3,0(a3)
    214c:	00d7e7b3          	or	a5,a5,a3
    2150:	0fc50693          	addi	a3,a0,252
    2154:	008686b3          	add	a3,a3,s0
    2158:	00f6a023          	sw	a5,0(a3)
    215c:	00058793          	mv	a5,a1
    2160:	00679793          	slli	a5,a5,0x6
    2164:	00050613          	mv	a2,a0
    2168:	0f860693          	addi	a3,a2,248
    216c:	008686b3          	add	a3,a3,s0
    2170:	00f6a023          	sw	a5,0(a3)
    2174:	00070793          	mv	a5,a4
    2178:	00379713          	slli	a4,a5,0x3
    217c:	fffb87b7          	lui	a5,0xfffb8
    2180:	fc078793          	addi	a5,a5,-64 # fffb7fc0 <__alt_data_end+0xfff3dea0>
    2184:	008787b3          	add	a5,a5,s0
    2188:	00f70713          	addi	a4,a4,15
    218c:	00475713          	srli	a4,a4,0x4
    2190:	00471713          	slli	a4,a4,0x4
    2194:	40e10133          	sub	sp,sp,a4
    2198:	00010713          	mv	a4,sp
    219c:	00770713          	addi	a4,a4,7
    21a0:	00375713          	srli	a4,a4,0x3
    21a4:	00371713          	slli	a4,a4,0x3
    21a8:	18e7a223          	sw	a4,388(a5)
    21ac:	fffb87b7          	lui	a5,0xfffb8
    21b0:	fc078793          	addi	a5,a5,-64 # fffb7fc0 <__alt_data_end+0xfff3dea0>
    21b4:	008787b3          	add	a5,a5,s0
    21b8:	16c7a783          	lw	a5,364(a5)
    21bc:	00b78793          	addi	a5,a5,11
    21c0:	01f7d713          	srli	a4,a5,0x1f
    21c4:	00f707b3          	add	a5,a4,a5
    21c8:	4017d793          	srai	a5,a5,0x1
    21cc:	00b78793          	addi	a5,a5,11
    21d0:	01f7d713          	srli	a4,a5,0x1f
    21d4:	00f707b3          	add	a5,a4,a5
    21d8:	4017d793          	srai	a5,a5,0x1
    21dc:	fff78713          	addi	a4,a5,-1
    21e0:	00070693          	mv	a3,a4
    21e4:	fffb8737          	lui	a4,0xfffb8
    21e8:	fc070713          	addi	a4,a4,-64 # fffb7fc0 <__alt_data_end+0xfff3dea0>
    21ec:	00870733          	add	a4,a4,s0
    21f0:	18d72423          	sw	a3,392(a4)
    21f4:	00078713          	mv	a4,a5
    21f8:	00060513          	mv	a0,a2
    21fc:	0b050693          	addi	a3,a0,176
    2200:	008686b3          	add	a3,a3,s0
    2204:	00e6a023          	sw	a4,0(a3)
    2208:	0b450713          	addi	a4,a0,180
    220c:	00870733          	add	a4,a4,s0
    2210:	00072023          	sw	zero,0(a4)
    2214:	0b050713          	addi	a4,a0,176
    2218:	00870733          	add	a4,a4,s0
    221c:	00072583          	lw	a1,0(a4)
    2220:	00472603          	lw	a2,4(a4)
    2224:	00058713          	mv	a4,a1
    2228:	01a75713          	srli	a4,a4,0x1a
    222c:	00060693          	mv	a3,a2
    2230:	00669693          	slli	a3,a3,0x6
    2234:	0f450813          	addi	a6,a0,244
    2238:	00880833          	add	a6,a6,s0
    223c:	00d82023          	sw	a3,0(a6)
    2240:	0f450693          	addi	a3,a0,244
    2244:	008686b3          	add	a3,a3,s0
    2248:	0006a683          	lw	a3,0(a3)
    224c:	00d76733          	or	a4,a4,a3
    2250:	0f450693          	addi	a3,a0,244
    2254:	008686b3          	add	a3,a3,s0
    2258:	00e6a023          	sw	a4,0(a3)
    225c:	00058713          	mv	a4,a1
    2260:	00671713          	slli	a4,a4,0x6
    2264:	0f050693          	addi	a3,a0,240
    2268:	008686b3          	add	a3,a3,s0
    226c:	00e6a023          	sw	a4,0(a3)
    2270:	00078713          	mv	a4,a5
    2274:	0a850693          	addi	a3,a0,168
    2278:	008686b3          	add	a3,a3,s0
    227c:	00e6a023          	sw	a4,0(a3)
    2280:	0ac50713          	addi	a4,a0,172
    2284:	00870733          	add	a4,a4,s0
    2288:	00072023          	sw	zero,0(a4)
    228c:	0a850713          	addi	a4,a0,168
    2290:	00870733          	add	a4,a4,s0
    2294:	00072583          	lw	a1,0(a4)
    2298:	00472603          	lw	a2,4(a4)
    229c:	00058713          	mv	a4,a1
    22a0:	01a75713          	srli	a4,a4,0x1a
    22a4:	00060693          	mv	a3,a2
    22a8:	00669693          	slli	a3,a3,0x6
    22ac:	0ec50813          	addi	a6,a0,236
    22b0:	00880833          	add	a6,a6,s0
    22b4:	00d82023          	sw	a3,0(a6)
    22b8:	0ec50693          	addi	a3,a0,236
    22bc:	008686b3          	add	a3,a3,s0
    22c0:	0006a683          	lw	a3,0(a3)
    22c4:	00d76733          	or	a4,a4,a3
    22c8:	0ec50693          	addi	a3,a0,236
    22cc:	008686b3          	add	a3,a3,s0
    22d0:	00e6a023          	sw	a4,0(a3)
    22d4:	00058713          	mv	a4,a1
    22d8:	00671713          	slli	a4,a4,0x6
    22dc:	0e850693          	addi	a3,a0,232
    22e0:	008686b3          	add	a3,a3,s0
    22e4:	00e6a023          	sw	a4,0(a3)
    22e8:	00379713          	slli	a4,a5,0x3
    22ec:	fffb87b7          	lui	a5,0xfffb8
    22f0:	fc078793          	addi	a5,a5,-64 # fffb7fc0 <__alt_data_end+0xfff3dea0>
    22f4:	008787b3          	add	a5,a5,s0
    22f8:	00f70713          	addi	a4,a4,15
    22fc:	00475713          	srli	a4,a4,0x4
    2300:	00471713          	slli	a4,a4,0x4
    2304:	40e10133          	sub	sp,sp,a4
    2308:	00010713          	mv	a4,sp
    230c:	00770713          	addi	a4,a4,7
    2310:	00375713          	srli	a4,a4,0x3
    2314:	00371713          	slli	a4,a4,0x3
    2318:	18e7a623          	sw	a4,396(a5)

    // Crer le signal modifi en rptant les premiers 12 chantillons.
    createModifiedSignal(ecgData, modifiedECGData, numSamples, 11);
    231c:	fffb87b7          	lui	a5,0xfffb8
    2320:	fc078793          	addi	a5,a5,-64 # fffb7fc0 <__alt_data_end+0xfff3dea0>
    2324:	008787b3          	add	a5,a5,s0
    2328:	fffcd737          	lui	a4,0xfffcd
    232c:	4d870713          	addi	a4,a4,1240 # fffcd4d8 <__alt_data_end+0xfff533b8>
    2330:	fc070713          	addi	a4,a4,-64
    2334:	008705b3          	add	a1,a4,s0
    2338:	fffbf737          	lui	a4,0xfffbf
    233c:	3d870713          	addi	a4,a4,984 # fffbf3d8 <__alt_data_end+0xfff452b8>
    2340:	fc070713          	addi	a4,a4,-64
    2344:	00870733          	add	a4,a4,s0
    2348:	00b00693          	li	a3,11
    234c:	16c7a603          	lw	a2,364(a5)
    2350:	00070513          	mv	a0,a4
    2354:	890fe0ef          	jal	ra,3e4 <createModifiedSignal>



    // Perform two-level DWT
    saveToCSV("modified_ecg.csv", modifiedECGData, numSamples + 11);
    2358:	fffb87b7          	lui	a5,0xfffb8
    235c:	fc078793          	addi	a5,a5,-64 # fffb7fc0 <__alt_data_end+0xfff3dea0>
    2360:	008787b3          	add	a5,a5,s0
    2364:	16c7a783          	lw	a5,364(a5)
    2368:	00b78713          	addi	a4,a5,11
    236c:	fffcd7b7          	lui	a5,0xfffcd
    2370:	4d878793          	addi	a5,a5,1240 # fffcd4d8 <__alt_data_end+0xfff533b8>
    2374:	fc078793          	addi	a5,a5,-64
    2378:	008787b3          	add	a5,a5,s0
    237c:	00070613          	mv	a2,a4
    2380:	00078593          	mv	a1,a5
    2384:	0002b7b7          	lui	a5,0x2b
    2388:	5f878513          	addi	a0,a5,1528 # 2b5f8 <__flash_rodata_start+0x58>
    238c:	930fe0ef          	jal	ra,4bc <saveToCSV>


    performDWT(modifiedECGData, numSamples+ 11, Lo_D, Hi_D, FILTER_LENGTH, A1, D1); // First level DWT
    2390:	fffb87b7          	lui	a5,0xfffb8
    2394:	fc078793          	addi	a5,a5,-64 # fffb7fc0 <__alt_data_end+0xfff3dea0>
    2398:	008787b3          	add	a5,a5,s0
    239c:	16c7a783          	lw	a5,364(a5)
    23a0:	00b78593          	addi	a1,a5,11
    23a4:	fffb87b7          	lui	a5,0xfffb8
    23a8:	fc078793          	addi	a5,a5,-64 # fffb7fc0 <__alt_data_end+0xfff3dea0>
    23ac:	00878733          	add	a4,a5,s0
    23b0:	fffb87b7          	lui	a5,0xfffb8
    23b4:	fc078793          	addi	a5,a5,-64 # fffb7fc0 <__alt_data_end+0xfff3dea0>
    23b8:	008787b3          	add	a5,a5,s0
    23bc:	fffb86b7          	lui	a3,0xfffb8
    23c0:	23868693          	addi	a3,a3,568 # fffb8238 <__alt_data_end+0xfff3e118>
    23c4:	fc068693          	addi	a3,a3,-64
    23c8:	008688b3          	add	a7,a3,s0
    23cc:	fffb86b7          	lui	a3,0xfffb8
    23d0:	1d868693          	addi	a3,a3,472 # fffb81d8 <__alt_data_end+0xfff3e0b8>
    23d4:	fc068693          	addi	a3,a3,-64
    23d8:	00868633          	add	a2,a3,s0
    23dc:	fffcd6b7          	lui	a3,0xfffcd
    23e0:	4d868693          	addi	a3,a3,1240 # fffcd4d8 <__alt_data_end+0xfff533b8>
    23e4:	fc068693          	addi	a3,a3,-64
    23e8:	00868533          	add	a0,a3,s0
    23ec:	17c72803          	lw	a6,380(a4)
    23f0:	1747a783          	lw	a5,372(a5)
    23f4:	00c00713          	li	a4,12
    23f8:	00088693          	mv	a3,a7
    23fc:	970fe0ef          	jal	ra,56c <performDWT>

    saveToCSV("A1.csv", A1, (numSamples + 11)/2);
    2400:	fffb87b7          	lui	a5,0xfffb8
    2404:	fc078793          	addi	a5,a5,-64 # fffb7fc0 <__alt_data_end+0xfff3dea0>
    2408:	008787b3          	add	a5,a5,s0
    240c:	16c7a783          	lw	a5,364(a5)
    2410:	00b78793          	addi	a5,a5,11
    2414:	01f7d713          	srli	a4,a5,0x1f
    2418:	00f707b3          	add	a5,a4,a5
    241c:	4017d793          	srai	a5,a5,0x1
    2420:	00078713          	mv	a4,a5
    2424:	fffb87b7          	lui	a5,0xfffb8
    2428:	fc078793          	addi	a5,a5,-64 # fffb7fc0 <__alt_data_end+0xfff3dea0>
    242c:	008787b3          	add	a5,a5,s0
    2430:	00070613          	mv	a2,a4
    2434:	1747a583          	lw	a1,372(a5)
    2438:	0002b7b7          	lui	a5,0x2b
    243c:	60c78513          	addi	a0,a5,1548 # 2b60c <__flash_rodata_start+0x6c>
    2440:	87cfe0ef          	jal	ra,4bc <saveToCSV>
   // Crer le signal modifi en rptant les premiers 12 chantillons.
    createModifiedSignal(A1, modifiedECGData2, (numSamples+11)/2, 11);
    2444:	fffb87b7          	lui	a5,0xfffb8
    2448:	fc078793          	addi	a5,a5,-64 # fffb7fc0 <__alt_data_end+0xfff3dea0>
    244c:	008787b3          	add	a5,a5,s0
    2450:	16c7a783          	lw	a5,364(a5)
    2454:	00b78793          	addi	a5,a5,11
    2458:	01f7d713          	srli	a4,a5,0x1f
    245c:	00f707b3          	add	a5,a4,a5
    2460:	4017d793          	srai	a5,a5,0x1
    2464:	00078613          	mv	a2,a5
    2468:	fffd57b7          	lui	a5,0xfffd5
    246c:	8b878793          	addi	a5,a5,-1864 # fffd48b8 <__alt_data_end+0xfff5a798>
    2470:	fc078793          	addi	a5,a5,-64
    2474:	00878733          	add	a4,a5,s0
    2478:	fffb87b7          	lui	a5,0xfffb8
    247c:	fc078793          	addi	a5,a5,-64 # fffb7fc0 <__alt_data_end+0xfff3dea0>
    2480:	008787b3          	add	a5,a5,s0
    2484:	00b00693          	li	a3,11
    2488:	00070593          	mv	a1,a4
    248c:	1747a503          	lw	a0,372(a5)
    2490:	f55fd0ef          	jal	ra,3e4 <createModifiedSignal>

    saveToCSV("MA1.csv", modifiedECGData2, (numSamples + 11)/2 +11);
    2494:	fffb87b7          	lui	a5,0xfffb8
    2498:	fc078793          	addi	a5,a5,-64 # fffb7fc0 <__alt_data_end+0xfff3dea0>
    249c:	008787b3          	add	a5,a5,s0
    24a0:	16c7a783          	lw	a5,364(a5)
    24a4:	00b78793          	addi	a5,a5,11
    24a8:	01f7d713          	srli	a4,a5,0x1f
    24ac:	00f707b3          	add	a5,a4,a5
    24b0:	4017d793          	srai	a5,a5,0x1
    24b4:	00b78713          	addi	a4,a5,11
    24b8:	fffd57b7          	lui	a5,0xfffd5
    24bc:	8b878793          	addi	a5,a5,-1864 # fffd48b8 <__alt_data_end+0xfff5a798>
    24c0:	fc078793          	addi	a5,a5,-64
    24c4:	008787b3          	add	a5,a5,s0
    24c8:	00070613          	mv	a2,a4
    24cc:	00078593          	mv	a1,a5
    24d0:	0002b7b7          	lui	a5,0x2b
    24d4:	61478513          	addi	a0,a5,1556 # 2b614 <__flash_rodata_start+0x74>
    24d8:	fe5fd0ef          	jal	ra,4bc <saveToCSV>

    start = clock();
    24dc:	1b9020ef          	jal	ra,4e94 <clock>
    24e0:	00050713          	mv	a4,a0
    24e4:	000317b7          	lui	a5,0x31
    24e8:	d2e7ac23          	sw	a4,-712(a5) # 30d38 <start>
    for (int i = 0; i < 20; i++) {
    24ec:	fffb87b7          	lui	a5,0xfffb8
    24f0:	fc078793          	addi	a5,a5,-64 # fffb7fc0 <__alt_data_end+0xfff3dea0>
    24f4:	008787b3          	add	a5,a5,s0
    24f8:	1407ae23          	sw	zero,348(a5)
    24fc:	0a80006f          	j	25a4 <main+0xa70>

    performDWT(modifiedECGData2, ((numSamples+11)/2 ) + 11, Lo_D, Hi_D, FILTER_LENGTH, A2, D2); // Second level DWT
    2500:	fffb87b7          	lui	a5,0xfffb8
    2504:	fc078793          	addi	a5,a5,-64 # fffb7fc0 <__alt_data_end+0xfff3dea0>
    2508:	008787b3          	add	a5,a5,s0
    250c:	16c7a783          	lw	a5,364(a5)
    2510:	00b78793          	addi	a5,a5,11
    2514:	01f7d713          	srli	a4,a5,0x1f
    2518:	00f707b3          	add	a5,a4,a5
    251c:	4017d793          	srai	a5,a5,0x1
    2520:	00b78593          	addi	a1,a5,11
    2524:	fffb87b7          	lui	a5,0xfffb8
    2528:	fc078793          	addi	a5,a5,-64 # fffb7fc0 <__alt_data_end+0xfff3dea0>
    252c:	00878733          	add	a4,a5,s0
    2530:	fffb87b7          	lui	a5,0xfffb8
    2534:	fc078793          	addi	a5,a5,-64 # fffb7fc0 <__alt_data_end+0xfff3dea0>
    2538:	008787b3          	add	a5,a5,s0
    253c:	fffb86b7          	lui	a3,0xfffb8
    2540:	23868693          	addi	a3,a3,568 # fffb8238 <__alt_data_end+0xfff3e118>
    2544:	fc068693          	addi	a3,a3,-64
    2548:	008688b3          	add	a7,a3,s0
    254c:	fffb86b7          	lui	a3,0xfffb8
    2550:	1d868693          	addi	a3,a3,472 # fffb81d8 <__alt_data_end+0xfff3e0b8>
    2554:	fc068693          	addi	a3,a3,-64
    2558:	00868633          	add	a2,a3,s0
    255c:	fffd56b7          	lui	a3,0xfffd5
    2560:	8b868693          	addi	a3,a3,-1864 # fffd48b8 <__alt_data_end+0xfff5a798>
    2564:	fc068693          	addi	a3,a3,-64
    2568:	00868533          	add	a0,a3,s0
    256c:	18c72803          	lw	a6,396(a4)
    2570:	1847a783          	lw	a5,388(a5)
    2574:	00c00713          	li	a4,12
    2578:	00088693          	mv	a3,a7
    257c:	ff1fd0ef          	jal	ra,56c <performDWT>
    for (int i = 0; i < 20; i++) {
    2580:	fffb87b7          	lui	a5,0xfffb8
    2584:	fc078793          	addi	a5,a5,-64 # fffb7fc0 <__alt_data_end+0xfff3dea0>
    2588:	008787b3          	add	a5,a5,s0
    258c:	fffb8737          	lui	a4,0xfffb8
    2590:	fc070713          	addi	a4,a4,-64 # fffb7fc0 <__alt_data_end+0xfff3dea0>
    2594:	00870733          	add	a4,a4,s0
    2598:	15c72703          	lw	a4,348(a4)
    259c:	00170713          	addi	a4,a4,1
    25a0:	14e7ae23          	sw	a4,348(a5)
    25a4:	fffb87b7          	lui	a5,0xfffb8
    25a8:	fc078793          	addi	a5,a5,-64 # fffb7fc0 <__alt_data_end+0xfff3dea0>
    25ac:	008787b3          	add	a5,a5,s0
    25b0:	15c7a703          	lw	a4,348(a5)
    25b4:	01300793          	li	a5,19
    25b8:	f4e7d4e3          	bge	a5,a4,2500 <main+0x9cc>
    }
end = clock();
    25bc:	0d9020ef          	jal	ra,4e94 <clock>
    25c0:	00050713          	mv	a4,a0
    25c4:	000317b7          	lui	a5,0x31
    25c8:	e8e7a423          	sw	a4,-376(a5) # 30e88 <end>
cpu_time_used = ((double) (end - start)) / CLOCKS_PER_SEC;
    25cc:	000317b7          	lui	a5,0x31
    25d0:	e887a703          	lw	a4,-376(a5) # 30e88 <end>
    25d4:	000317b7          	lui	a5,0x31
    25d8:	d387a783          	lw	a5,-712(a5) # 30d38 <start>
    25dc:	40f707b3          	sub	a5,a4,a5
    25e0:	00078513          	mv	a0,a5
    25e4:	2e5210ef          	jal	ra,240c8 <__floatunsidf>
    25e8:	00050713          	mv	a4,a0
    25ec:	00058793          	mv	a5,a1
    25f0:	0002c6b7          	lui	a3,0x2c
    25f4:	9786a603          	lw	a2,-1672(a3) # 2b978 <__flash_rodata_start+0x3d8>
    25f8:	97c6a683          	lw	a3,-1668(a3)
    25fc:	00070513          	mv	a0,a4
    2600:	00078593          	mv	a1,a5
    2604:	6791f0ef          	jal	ra,2247c <__divdf3>
    2608:	00050713          	mv	a4,a0
    260c:	00058793          	mv	a5,a1
    2610:	000316b7          	lui	a3,0x31
    2614:	d4e6a823          	sw	a4,-688(a3) # 30d50 <cpu_time_used>
    2618:	d4f6aa23          	sw	a5,-684(a3)
cpu_time_used /= 20; // Average time per call
    261c:	000317b7          	lui	a5,0x31
    2620:	d507a703          	lw	a4,-688(a5) # 30d50 <cpu_time_used>
    2624:	d547a783          	lw	a5,-684(a5)
    2628:	0002c6b7          	lui	a3,0x2c
    262c:	9806a603          	lw	a2,-1664(a3) # 2b980 <__flash_rodata_start+0x3e0>
    2630:	9846a683          	lw	a3,-1660(a3)
    2634:	00070513          	mv	a0,a4
    2638:	00078593          	mv	a1,a5
    263c:	6411f0ef          	jal	ra,2247c <__divdf3>
    2640:	00050713          	mv	a4,a0
    2644:	00058793          	mv	a5,a1
    2648:	000316b7          	lui	a3,0x31
    264c:	d4e6a823          	sw	a4,-688(a3) # 30d50 <cpu_time_used>
    2650:	d4f6aa23          	sw	a5,-684(a3)

printf("Temps d'execution de performDWT: %f secondes\n", cpu_time_used);
    2654:	000317b7          	lui	a5,0x31
    2658:	d507a703          	lw	a4,-688(a5) # 30d50 <cpu_time_used>
    265c:	d547a783          	lw	a5,-684(a5)
    2660:	00070613          	mv	a2,a4
    2664:	00078693          	mv	a3,a5
    2668:	0002b7b7          	lui	a5,0x2b
    266c:	61c78513          	addi	a0,a5,1564 # 2b61c <__flash_rodata_start+0x7c>
    2670:	7c1040ef          	jal	ra,7630 <printf>



    saveToCSV("A2.csv", A2, ((numSamples + 11)/2 +11 ) /2);
    2674:	fffb87b7          	lui	a5,0xfffb8
    2678:	fc078793          	addi	a5,a5,-64 # fffb7fc0 <__alt_data_end+0xfff3dea0>
    267c:	008787b3          	add	a5,a5,s0
    2680:	16c7a783          	lw	a5,364(a5)
    2684:	00b78793          	addi	a5,a5,11
    2688:	01f7d713          	srli	a4,a5,0x1f
    268c:	00f707b3          	add	a5,a4,a5
    2690:	4017d793          	srai	a5,a5,0x1
    2694:	00b78793          	addi	a5,a5,11
    2698:	01f7d713          	srli	a4,a5,0x1f
    269c:	00f707b3          	add	a5,a4,a5
    26a0:	4017d793          	srai	a5,a5,0x1
    26a4:	00078713          	mv	a4,a5
    26a8:	fffb87b7          	lui	a5,0xfffb8
    26ac:	fc078793          	addi	a5,a5,-64 # fffb7fc0 <__alt_data_end+0xfff3dea0>
    26b0:	008787b3          	add	a5,a5,s0
    26b4:	00070613          	mv	a2,a4
    26b8:	1847a583          	lw	a1,388(a5)
    26bc:	0002b7b7          	lui	a5,0x2b
    26c0:	64c78513          	addi	a0,a5,1612 # 2b64c <__flash_rodata_start+0xac>
    26c4:	df9fd0ef          	jal	ra,4bc <saveToCSV>
    double finalSignal2 [3708];

    //createModifiedSignal(A2, modifiedECGData3, (((numSamples+11)/2 ) + 11)/2, 11);

    //saveToCSV("MA2.csv", modifiedECGData3, (((numSamples+11)/2 ) + 11)/2 +11 );
    removeFirstSamples(A2, modifiedECGData3, ((numSamples + 11)/2 +11 ) /2 , 11);
    26c8:	fffb87b7          	lui	a5,0xfffb8
    26cc:	fc078793          	addi	a5,a5,-64 # fffb7fc0 <__alt_data_end+0xfff3dea0>
    26d0:	008787b3          	add	a5,a5,s0
    26d4:	16c7a783          	lw	a5,364(a5)
    26d8:	00b78793          	addi	a5,a5,11
    26dc:	01f7d713          	srli	a4,a5,0x1f
    26e0:	00f707b3          	add	a5,a4,a5
    26e4:	4017d793          	srai	a5,a5,0x1
    26e8:	00b78793          	addi	a5,a5,11
    26ec:	01f7d713          	srli	a4,a5,0x1f
    26f0:	00f707b3          	add	a5,a4,a5
    26f4:	4017d793          	srai	a5,a5,0x1
    26f8:	00078613          	mv	a2,a5
    26fc:	fffdc7b7          	lui	a5,0xfffdc
    2700:	c9878793          	addi	a5,a5,-872 # fffdbc98 <__alt_data_end+0xfff61b78>
    2704:	fc078793          	addi	a5,a5,-64
    2708:	00878733          	add	a4,a5,s0
    270c:	fffb87b7          	lui	a5,0xfffb8
    2710:	fc078793          	addi	a5,a5,-64 # fffb7fc0 <__alt_data_end+0xfff3dea0>
    2714:	008787b3          	add	a5,a5,s0
    2718:	00b00693          	li	a3,11
    271c:	00070593          	mv	a1,a4
    2720:	1847a503          	lw	a0,388(a5)
    2724:	ab8ff0ef          	jal	ra,19dc <removeFirstSamples>




    // First level of reconstruction
    start = clock();
    2728:	76c020ef          	jal	ra,4e94 <clock>
    272c:	00050713          	mv	a4,a0
    2730:	000317b7          	lui	a5,0x31
    2734:	d2e7ac23          	sw	a4,-712(a5) # 30d38 <start>
    for (int i = 0; i < 50; i++) {
    2738:	fffb87b7          	lui	a5,0xfffb8
    273c:	fc078793          	addi	a5,a5,-64 # fffb7fc0 <__alt_data_end+0xfff3dea0>
    2740:	008787b3          	add	a5,a5,s0
    2744:	1607a023          	sw	zero,352(a5)
    2748:	0980006f          	j	27e0 <main+0xcac>
    performSingleLevelReconstruction(modifiedECGData3, ((numSamples + 11)/2 +11 ) /2 - 11 , Lo_R, intermediateSignal);
    274c:	fffb87b7          	lui	a5,0xfffb8
    2750:	fc078793          	addi	a5,a5,-64 # fffb7fc0 <__alt_data_end+0xfff3dea0>
    2754:	008787b3          	add	a5,a5,s0
    2758:	16c7a783          	lw	a5,364(a5)
    275c:	00b78793          	addi	a5,a5,11
    2760:	01f7d713          	srli	a4,a5,0x1f
    2764:	00f707b3          	add	a5,a4,a5
    2768:	4017d793          	srai	a5,a5,0x1
    276c:	00b78793          	addi	a5,a5,11
    2770:	01f7d713          	srli	a4,a5,0x1f
    2774:	00f707b3          	add	a5,a4,a5
    2778:	4017d793          	srai	a5,a5,0x1
    277c:	ff578713          	addi	a4,a5,-11
    2780:	fffea7b7          	lui	a5,0xfffea
    2784:	45878793          	addi	a5,a5,1112 # fffea458 <__alt_data_end+0xfff70338>
    2788:	fc078793          	addi	a5,a5,-64
    278c:	008786b3          	add	a3,a5,s0
    2790:	fffb87b7          	lui	a5,0xfffb8
    2794:	29878793          	addi	a5,a5,664 # fffb8298 <__alt_data_end+0xfff3e178>
    2798:	fc078793          	addi	a5,a5,-64
    279c:	00878633          	add	a2,a5,s0
    27a0:	fffdc7b7          	lui	a5,0xfffdc
    27a4:	c9878793          	addi	a5,a5,-872 # fffdbc98 <__alt_data_end+0xfff61b78>
    27a8:	fc078793          	addi	a5,a5,-64
    27ac:	008787b3          	add	a5,a5,s0
    27b0:	00070593          	mv	a1,a4
    27b4:	00078513          	mv	a0,a5
    27b8:	fe9fd0ef          	jal	ra,7a0 <performSingleLevelReconstruction>
    for (int i = 0; i < 50; i++) {
    27bc:	fffb87b7          	lui	a5,0xfffb8
    27c0:	fc078793          	addi	a5,a5,-64 # fffb7fc0 <__alt_data_end+0xfff3dea0>
    27c4:	008787b3          	add	a5,a5,s0
    27c8:	fffb8737          	lui	a4,0xfffb8
    27cc:	fc070713          	addi	a4,a4,-64 # fffb7fc0 <__alt_data_end+0xfff3dea0>
    27d0:	00870733          	add	a4,a4,s0
    27d4:	16072703          	lw	a4,352(a4)
    27d8:	00170713          	addi	a4,a4,1
    27dc:	16e7a023          	sw	a4,352(a5)
    27e0:	fffb87b7          	lui	a5,0xfffb8
    27e4:	fc078793          	addi	a5,a5,-64 # fffb7fc0 <__alt_data_end+0xfff3dea0>
    27e8:	008787b3          	add	a5,a5,s0
    27ec:	1607a703          	lw	a4,352(a5)
    27f0:	03100793          	li	a5,49
    27f4:	f4e7dce3          	bge	a5,a4,274c <main+0xc18>
    }

end = clock();
    27f8:	69c020ef          	jal	ra,4e94 <clock>
    27fc:	00050713          	mv	a4,a0
    2800:	000317b7          	lui	a5,0x31
    2804:	e8e7a423          	sw	a4,-376(a5) # 30e88 <end>
cpu_time_used = ((double) (end - start)) / CLOCKS_PER_SEC;
    2808:	000317b7          	lui	a5,0x31
    280c:	e887a703          	lw	a4,-376(a5) # 30e88 <end>
    2810:	000317b7          	lui	a5,0x31
    2814:	d387a783          	lw	a5,-712(a5) # 30d38 <start>
    2818:	40f707b3          	sub	a5,a4,a5
    281c:	00078513          	mv	a0,a5
    2820:	0a9210ef          	jal	ra,240c8 <__floatunsidf>
    2824:	00050713          	mv	a4,a0
    2828:	00058793          	mv	a5,a1
    282c:	0002c6b7          	lui	a3,0x2c
    2830:	9786a603          	lw	a2,-1672(a3) # 2b978 <__flash_rodata_start+0x3d8>
    2834:	97c6a683          	lw	a3,-1668(a3)
    2838:	00070513          	mv	a0,a4
    283c:	00078593          	mv	a1,a5
    2840:	43d1f0ef          	jal	ra,2247c <__divdf3>
    2844:	00050713          	mv	a4,a0
    2848:	00058793          	mv	a5,a1
    284c:	000316b7          	lui	a3,0x31
    2850:	d4e6a823          	sw	a4,-688(a3) # 30d50 <cpu_time_used>
    2854:	d4f6aa23          	sw	a5,-684(a3)
cpu_time_used /= 50; // Average time per call
    2858:	000317b7          	lui	a5,0x31
    285c:	d507a703          	lw	a4,-688(a5) # 30d50 <cpu_time_used>
    2860:	d547a783          	lw	a5,-684(a5)
    2864:	0002c6b7          	lui	a3,0x2c
    2868:	9886a603          	lw	a2,-1656(a3) # 2b988 <__flash_rodata_start+0x3e8>
    286c:	98c6a683          	lw	a3,-1652(a3)
    2870:	00070513          	mv	a0,a4
    2874:	00078593          	mv	a1,a5
    2878:	4051f0ef          	jal	ra,2247c <__divdf3>
    287c:	00050713          	mv	a4,a0
    2880:	00058793          	mv	a5,a1
    2884:	000316b7          	lui	a3,0x31
    2888:	d4e6a823          	sw	a4,-688(a3) # 30d50 <cpu_time_used>
    288c:	d4f6aa23          	sw	a5,-684(a3)

printf("Temps d'execution de performSingleLevelReconstruction : %f secondes\n", cpu_time_used);
    2890:	000317b7          	lui	a5,0x31
    2894:	d507a703          	lw	a4,-688(a5) # 30d50 <cpu_time_used>
    2898:	d547a783          	lw	a5,-684(a5)
    289c:	00070613          	mv	a2,a4
    28a0:	00078693          	mv	a3,a5
    28a4:	0002b7b7          	lui	a5,0x2b
    28a8:	65478513          	addi	a0,a5,1620 # 2b654 <__flash_rodata_start+0xb4>
    28ac:	585040ef          	jal	ra,7630 <printf>




saveToCSV("R1A2.csv", intermediateSignal, (((numSamples + 11)/2 +11 ) /2 - 11)*2 );
    28b0:	fffb87b7          	lui	a5,0xfffb8
    28b4:	fc078793          	addi	a5,a5,-64 # fffb7fc0 <__alt_data_end+0xfff3dea0>
    28b8:	008787b3          	add	a5,a5,s0
    28bc:	16c7a783          	lw	a5,364(a5)
    28c0:	00b78793          	addi	a5,a5,11
    28c4:	01f7d713          	srli	a4,a5,0x1f
    28c8:	00f707b3          	add	a5,a4,a5
    28cc:	4017d793          	srai	a5,a5,0x1
    28d0:	00b78793          	addi	a5,a5,11
    28d4:	01f7d713          	srli	a4,a5,0x1f
    28d8:	00f707b3          	add	a5,a4,a5
    28dc:	4017d793          	srai	a5,a5,0x1
    28e0:	ff578793          	addi	a5,a5,-11
    28e4:	00179713          	slli	a4,a5,0x1
    28e8:	fffea7b7          	lui	a5,0xfffea
    28ec:	45878793          	addi	a5,a5,1112 # fffea458 <__alt_data_end+0xfff70338>
    28f0:	fc078793          	addi	a5,a5,-64
    28f4:	008787b3          	add	a5,a5,s0
    28f8:	00070613          	mv	a2,a4
    28fc:	00078593          	mv	a1,a5
    2900:	0002b7b7          	lui	a5,0x2b
    2904:	69c78513          	addi	a0,a5,1692 # 2b69c <__flash_rodata_start+0xfc>
    2908:	bb5fd0ef          	jal	ra,4bc <saveToCSV>

    //createModifiedSignal(intermediateSignal, modifiedECGData4, ((((numSamples+11)/2 ) + 11)/2   +11)*2 , 11);
    //saveToCSV("MR1A2.csv", modifiedECGData4, ((((numSamples+11)/2 ) + 11)/2   +11)*2 + 11  );
    removeFirstSamples(intermediateSignal, modifiedECGData4, (((numSamples + 11)/2 +11 ) /2 - 11)*2 , 11);
    290c:	fffb87b7          	lui	a5,0xfffb8
    2910:	fc078793          	addi	a5,a5,-64 # fffb7fc0 <__alt_data_end+0xfff3dea0>
    2914:	008787b3          	add	a5,a5,s0
    2918:	16c7a783          	lw	a5,364(a5)
    291c:	00b78793          	addi	a5,a5,11
    2920:	01f7d713          	srli	a4,a5,0x1f
    2924:	00f707b3          	add	a5,a4,a5
    2928:	4017d793          	srai	a5,a5,0x1
    292c:	00b78793          	addi	a5,a5,11
    2930:	01f7d713          	srli	a4,a5,0x1f
    2934:	00f707b3          	add	a5,a4,a5
    2938:	4017d793          	srai	a5,a5,0x1
    293c:	ff578793          	addi	a5,a5,-11
    2940:	00179613          	slli	a2,a5,0x1
    2944:	fffe37b7          	lui	a5,0xfffe3
    2948:	07878793          	addi	a5,a5,120 # fffe3078 <__alt_data_end+0xfff68f58>
    294c:	fc078793          	addi	a5,a5,-64
    2950:	00878733          	add	a4,a5,s0
    2954:	fffea7b7          	lui	a5,0xfffea
    2958:	45878793          	addi	a5,a5,1112 # fffea458 <__alt_data_end+0xfff70338>
    295c:	fc078793          	addi	a5,a5,-64
    2960:	008787b3          	add	a5,a5,s0
    2964:	00b00693          	li	a3,11
    2968:	00070593          	mv	a1,a4
    296c:	00078513          	mv	a0,a5
    2970:	86cff0ef          	jal	ra,19dc <removeFirstSamples>

    // Second level of reconstruction, acts on the result of the first reconstruction
    performSingleLevelReconstruction(modifiedECGData4, (((numSamples + 11)/2 +11 ) /2 - 11)*2 -11  , Lo_R, finalSignal);
    2974:	fffb87b7          	lui	a5,0xfffb8
    2978:	fc078793          	addi	a5,a5,-64 # fffb7fc0 <__alt_data_end+0xfff3dea0>
    297c:	008787b3          	add	a5,a5,s0
    2980:	16c7a783          	lw	a5,364(a5)
    2984:	00b78793          	addi	a5,a5,11
    2988:	01f7d713          	srli	a4,a5,0x1f
    298c:	00f707b3          	add	a5,a4,a5
    2990:	4017d793          	srai	a5,a5,0x1
    2994:	00b78793          	addi	a5,a5,11
    2998:	01f7d713          	srli	a4,a5,0x1f
    299c:	00f707b3          	add	a5,a4,a5
    29a0:	4017d793          	srai	a5,a5,0x1
    29a4:	ff578793          	addi	a5,a5,-11
    29a8:	00179793          	slli	a5,a5,0x1
    29ac:	ff578713          	addi	a4,a5,-11
    29b0:	ffff27b7          	lui	a5,0xffff2
    29b4:	83878793          	addi	a5,a5,-1992 # ffff1838 <__alt_data_end+0xfff77718>
    29b8:	fc078793          	addi	a5,a5,-64
    29bc:	008786b3          	add	a3,a5,s0
    29c0:	fffb87b7          	lui	a5,0xfffb8
    29c4:	29878793          	addi	a5,a5,664 # fffb8298 <__alt_data_end+0xfff3e178>
    29c8:	fc078793          	addi	a5,a5,-64
    29cc:	00878633          	add	a2,a5,s0
    29d0:	fffe37b7          	lui	a5,0xfffe3
    29d4:	07878793          	addi	a5,a5,120 # fffe3078 <__alt_data_end+0xfff68f58>
    29d8:	fc078793          	addi	a5,a5,-64
    29dc:	008787b3          	add	a5,a5,s0
    29e0:	00070593          	mv	a1,a4
    29e4:	00078513          	mv	a0,a5
    29e8:	db9fd0ef          	jal	ra,7a0 <performSingleLevelReconstruction>

    saveToCSV("myrec.csv", finalSignal,numSamples );
    29ec:	fffb87b7          	lui	a5,0xfffb8
    29f0:	fc078793          	addi	a5,a5,-64 # fffb7fc0 <__alt_data_end+0xfff3dea0>
    29f4:	008787b3          	add	a5,a5,s0
    29f8:	ffff2737          	lui	a4,0xffff2
    29fc:	83870713          	addi	a4,a4,-1992 # ffff1838 <__alt_data_end+0xfff77718>
    2a00:	fc070713          	addi	a4,a4,-64
    2a04:	00870733          	add	a4,a4,s0
    2a08:	16c7a603          	lw	a2,364(a5)
    2a0c:	00070593          	mv	a1,a4
    2a10:	0002b7b7          	lui	a5,0x2b
    2a14:	6a878513          	addi	a0,a5,1704 # 2b6a8 <__flash_rodata_start+0x108>
    2a18:	aa5fd0ef          	jal	ra,4bc <saveToCSV>


    int m = 10; // Window length for ADTF
    2a1c:	fffb87b7          	lui	a5,0xfffb8
    2a20:	fc078793          	addi	a5,a5,-64 # fffb7fc0 <__alt_data_end+0xfff3dea0>
    2a24:	008787b3          	add	a5,a5,s0
    2a28:	00a00713          	li	a4,10
    2a2c:	18e7a823          	sw	a4,400(a5)
    double b = 0.1; // ADTF thresholding coefficient
    2a30:	fffb87b7          	lui	a5,0xfffb8
    2a34:	fc078793          	addi	a5,a5,-64 # fffb7fc0 <__alt_data_end+0xfff3dea0>
    2a38:	008786b3          	add	a3,a5,s0
    2a3c:	0002c7b7          	lui	a5,0x2c
    2a40:	9907a703          	lw	a4,-1648(a5) # 2b990 <__flash_rodata_start+0x3f0>
    2a44:	9947a783          	lw	a5,-1644(a5)
    2a48:	1ae6a023          	sw	a4,416(a3)
    2a4c:	1af6a223          	sw	a5,420(a3)
    double ecgData_filtered[numSamples]; // Assuming MAX_SAMPLES is the length of your ECG data
    2a50:	fffb87b7          	lui	a5,0xfffb8
    2a54:	fc078793          	addi	a5,a5,-64 # fffb7fc0 <__alt_data_end+0xfff3dea0>
    2a58:	008787b3          	add	a5,a5,s0
    2a5c:	16c7a783          	lw	a5,364(a5)
    2a60:	fff78713          	addi	a4,a5,-1
    2a64:	00070693          	mv	a3,a4
    2a68:	fffb8737          	lui	a4,0xfffb8
    2a6c:	fc070713          	addi	a4,a4,-64 # fffb7fc0 <__alt_data_end+0xfff3dea0>
    2a70:	00870733          	add	a4,a4,s0
    2a74:	18d72a23          	sw	a3,404(a4)
    2a78:	00078713          	mv	a4,a5
    2a7c:	fffb8537          	lui	a0,0xfffb8
    2a80:	0a050693          	addi	a3,a0,160 # fffb80a0 <__alt_data_end+0xfff3df80>
    2a84:	008686b3          	add	a3,a3,s0
    2a88:	00e6a023          	sw	a4,0(a3)
    2a8c:	0a450713          	addi	a4,a0,164
    2a90:	00870733          	add	a4,a4,s0
    2a94:	00072023          	sw	zero,0(a4)
    2a98:	0a050713          	addi	a4,a0,160
    2a9c:	00870733          	add	a4,a4,s0
    2aa0:	00072583          	lw	a1,0(a4)
    2aa4:	00472603          	lw	a2,4(a4)
    2aa8:	00058713          	mv	a4,a1
    2aac:	01a75713          	srli	a4,a4,0x1a
    2ab0:	00060693          	mv	a3,a2
    2ab4:	00669693          	slli	a3,a3,0x6
    2ab8:	0e450813          	addi	a6,a0,228
    2abc:	00880833          	add	a6,a6,s0
    2ac0:	00d82023          	sw	a3,0(a6)
    2ac4:	0e450693          	addi	a3,a0,228
    2ac8:	008686b3          	add	a3,a3,s0
    2acc:	0006a683          	lw	a3,0(a3)
    2ad0:	00d76733          	or	a4,a4,a3
    2ad4:	0e450693          	addi	a3,a0,228
    2ad8:	008686b3          	add	a3,a3,s0
    2adc:	00e6a023          	sw	a4,0(a3)
    2ae0:	00058713          	mv	a4,a1
    2ae4:	00671713          	slli	a4,a4,0x6
    2ae8:	0e050693          	addi	a3,a0,224
    2aec:	008686b3          	add	a3,a3,s0
    2af0:	00e6a023          	sw	a4,0(a3)
    2af4:	00078713          	mv	a4,a5
    2af8:	09850693          	addi	a3,a0,152
    2afc:	008686b3          	add	a3,a3,s0
    2b00:	00e6a023          	sw	a4,0(a3)
    2b04:	09c50713          	addi	a4,a0,156
    2b08:	00870733          	add	a4,a4,s0
    2b0c:	00072023          	sw	zero,0(a4)
    2b10:	09850713          	addi	a4,a0,152
    2b14:	00870733          	add	a4,a4,s0
    2b18:	00072583          	lw	a1,0(a4)
    2b1c:	00472603          	lw	a2,4(a4)
    2b20:	00058713          	mv	a4,a1
    2b24:	01a75713          	srli	a4,a4,0x1a
    2b28:	00060693          	mv	a3,a2
    2b2c:	00669693          	slli	a3,a3,0x6
    2b30:	0dc50813          	addi	a6,a0,220
    2b34:	00880833          	add	a6,a6,s0
    2b38:	00d82023          	sw	a3,0(a6)
    2b3c:	0dc50693          	addi	a3,a0,220
    2b40:	008686b3          	add	a3,a3,s0
    2b44:	0006a683          	lw	a3,0(a3)
    2b48:	00d76733          	or	a4,a4,a3
    2b4c:	0dc50693          	addi	a3,a0,220
    2b50:	008686b3          	add	a3,a3,s0
    2b54:	00e6a023          	sw	a4,0(a3)
    2b58:	00058713          	mv	a4,a1
    2b5c:	00671713          	slli	a4,a4,0x6
    2b60:	0d850693          	addi	a3,a0,216
    2b64:	008686b3          	add	a3,a3,s0
    2b68:	00e6a023          	sw	a4,0(a3)
    2b6c:	00379713          	slli	a4,a5,0x3
    2b70:	fffb87b7          	lui	a5,0xfffb8
    2b74:	fc078793          	addi	a5,a5,-64 # fffb7fc0 <__alt_data_end+0xfff3dea0>
    2b78:	008787b3          	add	a5,a5,s0
    2b7c:	00f70713          	addi	a4,a4,15
    2b80:	00475713          	srli	a4,a4,0x4
    2b84:	00471713          	slli	a4,a4,0x4
    2b88:	40e10133          	sub	sp,sp,a4
    2b8c:	00010713          	mv	a4,sp
    2b90:	00770713          	addi	a4,a4,7
    2b94:	00375713          	srli	a4,a4,0x3
    2b98:	00371713          	slli	a4,a4,0x3
    2b9c:	18e7ac23          	sw	a4,408(a5)

    start = clock();
    2ba0:	2f4020ef          	jal	ra,4e94 <clock>
    2ba4:	00050713          	mv	a4,a0
    2ba8:	000317b7          	lui	a5,0x31
    2bac:	d2e7ac23          	sw	a4,-712(a5) # 30d38 <start>

for (int i = 0; i < 50; i++) {
    2bb0:	fffb87b7          	lui	a5,0xfffb8
    2bb4:	fc078793          	addi	a5,a5,-64 # fffb7fc0 <__alt_data_end+0xfff3dea0>
    2bb8:	008787b3          	add	a5,a5,s0
    2bbc:	1607a223          	sw	zero,356(a5)
    2bc0:	0800006f          	j	2c40 <main+0x110c>

    applyADTF(finalSignal, numSamples, b, m, ecgData_filtered);
    2bc4:	fffb87b7          	lui	a5,0xfffb8
    2bc8:	fc078793          	addi	a5,a5,-64 # fffb7fc0 <__alt_data_end+0xfff3dea0>
    2bcc:	008787b3          	add	a5,a5,s0
    2bd0:	fffb8737          	lui	a4,0xfffb8
    2bd4:	fc070713          	addi	a4,a4,-64 # fffb7fc0 <__alt_data_end+0xfff3dea0>
    2bd8:	00870733          	add	a4,a4,s0
    2bdc:	fffb86b7          	lui	a3,0xfffb8
    2be0:	fc068693          	addi	a3,a3,-64 # fffb7fc0 <__alt_data_end+0xfff3dea0>
    2be4:	008686b3          	add	a3,a3,s0
    2be8:	fffb8637          	lui	a2,0xfffb8
    2bec:	fc060613          	addi	a2,a2,-64 # fffb7fc0 <__alt_data_end+0xfff3dea0>
    2bf0:	008605b3          	add	a1,a2,s0
    2bf4:	ffff2637          	lui	a2,0xffff2
    2bf8:	83860613          	addi	a2,a2,-1992 # ffff1838 <__alt_data_end+0xfff77718>
    2bfc:	fc060613          	addi	a2,a2,-64
    2c00:	00860533          	add	a0,a2,s0
    2c04:	1987a783          	lw	a5,408(a5)
    2c08:	19072703          	lw	a4,400(a4)
    2c0c:	1a06a603          	lw	a2,416(a3)
    2c10:	1a46a683          	lw	a3,420(a3)
    2c14:	16c5a583          	lw	a1,364(a1)
    2c18:	f41fd0ef          	jal	ra,b58 <applyADTF>
for (int i = 0; i < 50; i++) {
    2c1c:	fffb87b7          	lui	a5,0xfffb8
    2c20:	fc078793          	addi	a5,a5,-64 # fffb7fc0 <__alt_data_end+0xfff3dea0>
    2c24:	008787b3          	add	a5,a5,s0
    2c28:	fffb8737          	lui	a4,0xfffb8
    2c2c:	fc070713          	addi	a4,a4,-64 # fffb7fc0 <__alt_data_end+0xfff3dea0>
    2c30:	00870733          	add	a4,a4,s0
    2c34:	16472703          	lw	a4,356(a4)
    2c38:	00170713          	addi	a4,a4,1
    2c3c:	16e7a223          	sw	a4,356(a5)
    2c40:	fffb87b7          	lui	a5,0xfffb8
    2c44:	fc078793          	addi	a5,a5,-64 # fffb7fc0 <__alt_data_end+0xfff3dea0>
    2c48:	008787b3          	add	a5,a5,s0
    2c4c:	1647a703          	lw	a4,356(a5)
    2c50:	03100793          	li	a5,49
    2c54:	f6e7d8e3          	bge	a5,a4,2bc4 <main+0x1090>
}

end = clock();
    2c58:	23c020ef          	jal	ra,4e94 <clock>
    2c5c:	00050713          	mv	a4,a0
    2c60:	000317b7          	lui	a5,0x31
    2c64:	e8e7a423          	sw	a4,-376(a5) # 30e88 <end>
cpu_time_used = ((double) (end - start)) / CLOCKS_PER_SEC;
    2c68:	000317b7          	lui	a5,0x31
    2c6c:	e887a703          	lw	a4,-376(a5) # 30e88 <end>
    2c70:	000317b7          	lui	a5,0x31
    2c74:	d387a783          	lw	a5,-712(a5) # 30d38 <start>
    2c78:	40f707b3          	sub	a5,a4,a5
    2c7c:	00078513          	mv	a0,a5
    2c80:	448210ef          	jal	ra,240c8 <__floatunsidf>
    2c84:	00050713          	mv	a4,a0
    2c88:	00058793          	mv	a5,a1
    2c8c:	0002c6b7          	lui	a3,0x2c
    2c90:	9786a603          	lw	a2,-1672(a3) # 2b978 <__flash_rodata_start+0x3d8>
    2c94:	97c6a683          	lw	a3,-1668(a3)
    2c98:	00070513          	mv	a0,a4
    2c9c:	00078593          	mv	a1,a5
    2ca0:	7dc1f0ef          	jal	ra,2247c <__divdf3>
    2ca4:	00050713          	mv	a4,a0
    2ca8:	00058793          	mv	a5,a1
    2cac:	000316b7          	lui	a3,0x31
    2cb0:	d4e6a823          	sw	a4,-688(a3) # 30d50 <cpu_time_used>
    2cb4:	d4f6aa23          	sw	a5,-684(a3)
cpu_time_used /= 50; // Average time per call
    2cb8:	000317b7          	lui	a5,0x31
    2cbc:	d507a703          	lw	a4,-688(a5) # 30d50 <cpu_time_used>
    2cc0:	d547a783          	lw	a5,-684(a5)
    2cc4:	0002c6b7          	lui	a3,0x2c
    2cc8:	9886a603          	lw	a2,-1656(a3) # 2b988 <__flash_rodata_start+0x3e8>
    2ccc:	98c6a683          	lw	a3,-1652(a3)
    2cd0:	00070513          	mv	a0,a4
    2cd4:	00078593          	mv	a1,a5
    2cd8:	7a41f0ef          	jal	ra,2247c <__divdf3>
    2cdc:	00050713          	mv	a4,a0
    2ce0:	00058793          	mv	a5,a1
    2ce4:	000316b7          	lui	a3,0x31
    2ce8:	d4e6a823          	sw	a4,-688(a3) # 30d50 <cpu_time_used>
    2cec:	d4f6aa23          	sw	a5,-684(a3)
printf("Temps d'execution de applyADTF : %f secondes\n", cpu_time_used);
    2cf0:	000317b7          	lui	a5,0x31
    2cf4:	d507a703          	lw	a4,-688(a5) # 30d50 <cpu_time_used>
    2cf8:	d547a783          	lw	a5,-684(a5)
    2cfc:	00070613          	mv	a2,a4
    2d00:	00078693          	mv	a3,a5
    2d04:	0002b7b7          	lui	a5,0x2b
    2d08:	6b478513          	addi	a0,a5,1716 # 2b6b4 <__flash_rodata_start+0x114>
    2d0c:	125040ef          	jal	ra,7630 <printf>



    // Correction of the highest peaks
double Y[3708]; // Array to store the final result after peaks correction
memcpy(Y, ecgData_filtered, numSamples * sizeof(double)); // Copy filtered data to Y for peak correction
    2d10:	fffb87b7          	lui	a5,0xfffb8
    2d14:	fc078793          	addi	a5,a5,-64 # fffb7fc0 <__alt_data_end+0xfff3dea0>
    2d18:	008787b3          	add	a5,a5,s0
    2d1c:	16c7a783          	lw	a5,364(a5)
    2d20:	00379693          	slli	a3,a5,0x3
    2d24:	fffb87b7          	lui	a5,0xfffb8
    2d28:	fc078793          	addi	a5,a5,-64 # fffb7fc0 <__alt_data_end+0xfff3dea0>
    2d2c:	008787b3          	add	a5,a5,s0
    2d30:	ffff9737          	lui	a4,0xffff9
    2d34:	c1870713          	addi	a4,a4,-1000 # ffff8c18 <__alt_data_end+0xfff7eaf8>
    2d38:	fc070713          	addi	a4,a4,-64
    2d3c:	00870733          	add	a4,a4,s0
    2d40:	00068613          	mv	a2,a3
    2d44:	1987a583          	lw	a1,408(a5)
    2d48:	00070513          	mv	a0,a4
    2d4c:	5a8040ef          	jal	ra,72f4 <memcpy>

    double threshold =0.7;
    2d50:	fffb87b7          	lui	a5,0xfffb8
    2d54:	fc078793          	addi	a5,a5,-64 # fffb7fc0 <__alt_data_end+0xfff3dea0>
    2d58:	008786b3          	add	a3,a5,s0
    2d5c:	0002c7b7          	lui	a5,0x2c
    2d60:	9987a703          	lw	a4,-1640(a5) # 2b998 <__flash_rodata_start+0x3f8>
    2d64:	99c7a783          	lw	a5,-1636(a5)
    2d68:	1ae6a423          	sw	a4,424(a3)
    2d6c:	1af6a623          	sw	a5,428(a3)

start = clock();
    2d70:	124020ef          	jal	ra,4e94 <clock>
    2d74:	00050713          	mv	a4,a0
    2d78:	000317b7          	lui	a5,0x31
    2d7c:	d2e7ac23          	sw	a4,-712(a5) # 30d38 <start>
for (int i = 0; i < 50; i++) {
    2d80:	fffb87b7          	lui	a5,0xfffb8
    2d84:	fc078793          	addi	a5,a5,-64 # fffb7fc0 <__alt_data_end+0xfff3dea0>
    2d88:	008787b3          	add	a5,a5,s0
    2d8c:	1607a423          	sw	zero,360(a5)
    2d90:	0800006f          	j	2e10 <main+0x12dc>
    correctHighestPeaks(finalSignal, ecgData_filtered, Y, numSamples, threshold);
    2d94:	fffb87b7          	lui	a5,0xfffb8
    2d98:	fc078793          	addi	a5,a5,-64 # fffb7fc0 <__alt_data_end+0xfff3dea0>
    2d9c:	008787b3          	add	a5,a5,s0
    2da0:	fffb8737          	lui	a4,0xfffb8
    2da4:	fc070713          	addi	a4,a4,-64 # fffb7fc0 <__alt_data_end+0xfff3dea0>
    2da8:	008706b3          	add	a3,a4,s0
    2dac:	ffff9737          	lui	a4,0xffff9
    2db0:	c1870713          	addi	a4,a4,-1000 # ffff8c18 <__alt_data_end+0xfff7eaf8>
    2db4:	fc070713          	addi	a4,a4,-64
    2db8:	00870633          	add	a2,a4,s0
    2dbc:	fffb8737          	lui	a4,0xfffb8
    2dc0:	fc070713          	addi	a4,a4,-64 # fffb7fc0 <__alt_data_end+0xfff3dea0>
    2dc4:	008705b3          	add	a1,a4,s0
    2dc8:	ffff2737          	lui	a4,0xffff2
    2dcc:	83870713          	addi	a4,a4,-1992 # ffff1838 <__alt_data_end+0xfff77718>
    2dd0:	fc070713          	addi	a4,a4,-64
    2dd4:	00870533          	add	a0,a4,s0
    2dd8:	1a87a703          	lw	a4,424(a5)
    2ddc:	1ac7a783          	lw	a5,428(a5)
    2de0:	16c6a683          	lw	a3,364(a3)
    2de4:	1985a583          	lw	a1,408(a1)
    2de8:	978fe0ef          	jal	ra,f60 <correctHighestPeaks>
for (int i = 0; i < 50; i++) {
    2dec:	fffb87b7          	lui	a5,0xfffb8
    2df0:	fc078793          	addi	a5,a5,-64 # fffb7fc0 <__alt_data_end+0xfff3dea0>
    2df4:	008787b3          	add	a5,a5,s0
    2df8:	fffb8737          	lui	a4,0xfffb8
    2dfc:	fc070713          	addi	a4,a4,-64 # fffb7fc0 <__alt_data_end+0xfff3dea0>
    2e00:	00870733          	add	a4,a4,s0
    2e04:	16872703          	lw	a4,360(a4)
    2e08:	00170713          	addi	a4,a4,1
    2e0c:	16e7a423          	sw	a4,360(a5)
    2e10:	fffb87b7          	lui	a5,0xfffb8
    2e14:	fc078793          	addi	a5,a5,-64 # fffb7fc0 <__alt_data_end+0xfff3dea0>
    2e18:	008787b3          	add	a5,a5,s0
    2e1c:	1687a703          	lw	a4,360(a5)
    2e20:	03100793          	li	a5,49
    2e24:	f6e7d8e3          	bge	a5,a4,2d94 <main+0x1260>
}
end = clock();
    2e28:	06c020ef          	jal	ra,4e94 <clock>
    2e2c:	00050713          	mv	a4,a0
    2e30:	000317b7          	lui	a5,0x31
    2e34:	e8e7a423          	sw	a4,-376(a5) # 30e88 <end>
cpu_time_used = ((double) (end - start)) / CLOCKS_PER_SEC;
    2e38:	000317b7          	lui	a5,0x31
    2e3c:	e887a703          	lw	a4,-376(a5) # 30e88 <end>
    2e40:	000317b7          	lui	a5,0x31
    2e44:	d387a783          	lw	a5,-712(a5) # 30d38 <start>
    2e48:	40f707b3          	sub	a5,a4,a5
    2e4c:	00078513          	mv	a0,a5
    2e50:	278210ef          	jal	ra,240c8 <__floatunsidf>
    2e54:	00050713          	mv	a4,a0
    2e58:	00058793          	mv	a5,a1
    2e5c:	0002c6b7          	lui	a3,0x2c
    2e60:	9786a603          	lw	a2,-1672(a3) # 2b978 <__flash_rodata_start+0x3d8>
    2e64:	97c6a683          	lw	a3,-1668(a3)
    2e68:	00070513          	mv	a0,a4
    2e6c:	00078593          	mv	a1,a5
    2e70:	60c1f0ef          	jal	ra,2247c <__divdf3>
    2e74:	00050713          	mv	a4,a0
    2e78:	00058793          	mv	a5,a1
    2e7c:	000316b7          	lui	a3,0x31
    2e80:	d4e6a823          	sw	a4,-688(a3) # 30d50 <cpu_time_used>
    2e84:	d4f6aa23          	sw	a5,-684(a3)
cpu_time_used /= 50; // Average time per call
    2e88:	000317b7          	lui	a5,0x31
    2e8c:	d507a703          	lw	a4,-688(a5) # 30d50 <cpu_time_used>
    2e90:	d547a783          	lw	a5,-684(a5)
    2e94:	0002c6b7          	lui	a3,0x2c
    2e98:	9886a603          	lw	a2,-1656(a3) # 2b988 <__flash_rodata_start+0x3e8>
    2e9c:	98c6a683          	lw	a3,-1652(a3)
    2ea0:	00070513          	mv	a0,a4
    2ea4:	00078593          	mv	a1,a5
    2ea8:	5d41f0ef          	jal	ra,2247c <__divdf3>
    2eac:	00050713          	mv	a4,a0
    2eb0:	00058793          	mv	a5,a1
    2eb4:	000316b7          	lui	a3,0x31
    2eb8:	d4e6a823          	sw	a4,-688(a3) # 30d50 <cpu_time_used>
    2ebc:	d4f6aa23          	sw	a5,-684(a3)
printf("Temps d'execution de correctHighestPeaks: %f secondes\n", cpu_time_used);
    2ec0:	000317b7          	lui	a5,0x31
    2ec4:	d507a703          	lw	a4,-688(a5) # 30d50 <cpu_time_used>
    2ec8:	d547a783          	lw	a5,-684(a5)
    2ecc:	00070613          	mv	a2,a4
    2ed0:	00078693          	mv	a3,a5
    2ed4:	0002b7b7          	lui	a5,0x2b
    2ed8:	6e478513          	addi	a0,a5,1764 # 2b6e4 <__flash_rodata_start+0x144>
    2edc:	754040ef          	jal	ra,7630 <printf>


    // Save results to CSV files
    saveToCSV("QA1.csv", A1, (numSamples +11) / 2);
    2ee0:	fffb87b7          	lui	a5,0xfffb8
    2ee4:	fc078793          	addi	a5,a5,-64 # fffb7fc0 <__alt_data_end+0xfff3dea0>
    2ee8:	008787b3          	add	a5,a5,s0
    2eec:	16c7a783          	lw	a5,364(a5)
    2ef0:	00b78793          	addi	a5,a5,11
    2ef4:	01f7d713          	srli	a4,a5,0x1f
    2ef8:	00f707b3          	add	a5,a4,a5
    2efc:	4017d793          	srai	a5,a5,0x1
    2f00:	00078713          	mv	a4,a5
    2f04:	fffb87b7          	lui	a5,0xfffb8
    2f08:	fc078793          	addi	a5,a5,-64 # fffb7fc0 <__alt_data_end+0xfff3dea0>
    2f0c:	008787b3          	add	a5,a5,s0
    2f10:	00070613          	mv	a2,a4
    2f14:	1747a583          	lw	a1,372(a5)
    2f18:	0002b7b7          	lui	a5,0x2b
    2f1c:	71c78513          	addi	a0,a5,1820 # 2b71c <__flash_rodata_start+0x17c>
    2f20:	d9cfd0ef          	jal	ra,4bc <saveToCSV>
    saveToCSV("QD1.csv", D1, numSamples / 2);
    2f24:	fffb87b7          	lui	a5,0xfffb8
    2f28:	fc078793          	addi	a5,a5,-64 # fffb7fc0 <__alt_data_end+0xfff3dea0>
    2f2c:	008787b3          	add	a5,a5,s0
    2f30:	16c7a783          	lw	a5,364(a5)
    2f34:	01f7d713          	srli	a4,a5,0x1f
    2f38:	00f707b3          	add	a5,a4,a5
    2f3c:	4017d793          	srai	a5,a5,0x1
    2f40:	00078713          	mv	a4,a5
    2f44:	fffb87b7          	lui	a5,0xfffb8
    2f48:	fc078793          	addi	a5,a5,-64 # fffb7fc0 <__alt_data_end+0xfff3dea0>
    2f4c:	008787b3          	add	a5,a5,s0
    2f50:	00070613          	mv	a2,a4
    2f54:	17c7a583          	lw	a1,380(a5)
    2f58:	0002b7b7          	lui	a5,0x2b
    2f5c:	72478513          	addi	a0,a5,1828 # 2b724 <__flash_rodata_start+0x184>
    2f60:	d5cfd0ef          	jal	ra,4bc <saveToCSV>
    saveToCSV("QA2.csv", A2, (numSamples / 2 + FILTER_LENGTH - 1) / 2); // Corrected length calculation
    2f64:	fffb87b7          	lui	a5,0xfffb8
    2f68:	fc078793          	addi	a5,a5,-64 # fffb7fc0 <__alt_data_end+0xfff3dea0>
    2f6c:	008787b3          	add	a5,a5,s0
    2f70:	16c7a783          	lw	a5,364(a5)
    2f74:	01f7d713          	srli	a4,a5,0x1f
    2f78:	00f707b3          	add	a5,a4,a5
    2f7c:	4017d793          	srai	a5,a5,0x1
    2f80:	00b78793          	addi	a5,a5,11
    2f84:	01f7d713          	srli	a4,a5,0x1f
    2f88:	00f707b3          	add	a5,a4,a5
    2f8c:	4017d793          	srai	a5,a5,0x1
    2f90:	00078713          	mv	a4,a5
    2f94:	fffb87b7          	lui	a5,0xfffb8
    2f98:	fc078793          	addi	a5,a5,-64 # fffb7fc0 <__alt_data_end+0xfff3dea0>
    2f9c:	008787b3          	add	a5,a5,s0
    2fa0:	00070613          	mv	a2,a4
    2fa4:	1847a583          	lw	a1,388(a5)
    2fa8:	0002b7b7          	lui	a5,0x2b
    2fac:	72c78513          	addi	a0,a5,1836 # 2b72c <__flash_rodata_start+0x18c>
    2fb0:	d0cfd0ef          	jal	ra,4bc <saveToCSV>
    saveToCSV("QD2.csv", D2, (numSamples / 2 + FILTER_LENGTH - 1) / 2); // Corrected length calculation
    2fb4:	fffb87b7          	lui	a5,0xfffb8
    2fb8:	fc078793          	addi	a5,a5,-64 # fffb7fc0 <__alt_data_end+0xfff3dea0>
    2fbc:	008787b3          	add	a5,a5,s0
    2fc0:	16c7a783          	lw	a5,364(a5)
    2fc4:	01f7d713          	srli	a4,a5,0x1f
    2fc8:	00f707b3          	add	a5,a4,a5
    2fcc:	4017d793          	srai	a5,a5,0x1
    2fd0:	00b78793          	addi	a5,a5,11
    2fd4:	01f7d713          	srli	a4,a5,0x1f
    2fd8:	00f707b3          	add	a5,a4,a5
    2fdc:	4017d793          	srai	a5,a5,0x1
    2fe0:	00078713          	mv	a4,a5
    2fe4:	fffb87b7          	lui	a5,0xfffb8
    2fe8:	fc078793          	addi	a5,a5,-64 # fffb7fc0 <__alt_data_end+0xfff3dea0>
    2fec:	008787b3          	add	a5,a5,s0
    2ff0:	00070613          	mv	a2,a4
    2ff4:	18c7a583          	lw	a1,396(a5)
    2ff8:	0002b7b7          	lui	a5,0x2b
    2ffc:	73478513          	addi	a0,a5,1844 # 2b734 <__flash_rodata_start+0x194>
    3000:	cbcfd0ef          	jal	ra,4bc <saveToCSV>
    saveToCSV("Qrecofsig.csv", finalSignal, (((numSamples + 11)/2 +11 ) /2 - 11)*4 -11);
    3004:	fffb87b7          	lui	a5,0xfffb8
    3008:	fc078793          	addi	a5,a5,-64 # fffb7fc0 <__alt_data_end+0xfff3dea0>
    300c:	008787b3          	add	a5,a5,s0
    3010:	16c7a783          	lw	a5,364(a5)
    3014:	00b78793          	addi	a5,a5,11
    3018:	01f7d713          	srli	a4,a5,0x1f
    301c:	00f707b3          	add	a5,a4,a5
    3020:	4017d793          	srai	a5,a5,0x1
    3024:	00b78793          	addi	a5,a5,11
    3028:	01f7d713          	srli	a4,a5,0x1f
    302c:	00f707b3          	add	a5,a4,a5
    3030:	4017d793          	srai	a5,a5,0x1
    3034:	ff578793          	addi	a5,a5,-11
    3038:	00279793          	slli	a5,a5,0x2
    303c:	ff578713          	addi	a4,a5,-11
    3040:	ffff27b7          	lui	a5,0xffff2
    3044:	83878793          	addi	a5,a5,-1992 # ffff1838 <__alt_data_end+0xfff77718>
    3048:	fc078793          	addi	a5,a5,-64
    304c:	008787b3          	add	a5,a5,s0
    3050:	00070613          	mv	a2,a4
    3054:	00078593          	mv	a1,a5
    3058:	0002b7b7          	lui	a5,0x2b
    305c:	73c78513          	addi	a0,a5,1852 # 2b73c <__flash_rodata_start+0x19c>
    3060:	c5cfd0ef          	jal	ra,4bc <saveToCSV>
    saveToCSV("QnoisyECGData.csv", ecgData, (((numSamples + 11)/2 +11 ) /2 - 11)*4 -11);
    3064:	fffb87b7          	lui	a5,0xfffb8
    3068:	fc078793          	addi	a5,a5,-64 # fffb7fc0 <__alt_data_end+0xfff3dea0>
    306c:	008787b3          	add	a5,a5,s0
    3070:	16c7a783          	lw	a5,364(a5)
    3074:	00b78793          	addi	a5,a5,11
    3078:	01f7d713          	srli	a4,a5,0x1f
    307c:	00f707b3          	add	a5,a4,a5
    3080:	4017d793          	srai	a5,a5,0x1
    3084:	00b78793          	addi	a5,a5,11
    3088:	01f7d713          	srli	a4,a5,0x1f
    308c:	00f707b3          	add	a5,a4,a5
    3090:	4017d793          	srai	a5,a5,0x1
    3094:	ff578793          	addi	a5,a5,-11
    3098:	00279793          	slli	a5,a5,0x2
    309c:	ff578713          	addi	a4,a5,-11
    30a0:	fffbf7b7          	lui	a5,0xfffbf
    30a4:	3d878793          	addi	a5,a5,984 # fffbf3d8 <__alt_data_end+0xfff452b8>
    30a8:	fc078793          	addi	a5,a5,-64
    30ac:	008787b3          	add	a5,a5,s0
    30b0:	00070613          	mv	a2,a4
    30b4:	00078593          	mv	a1,a5
    30b8:	0002b7b7          	lui	a5,0x2b
    30bc:	74c78513          	addi	a0,a5,1868 # 2b74c <__flash_rodata_start+0x1ac>
    30c0:	bfcfd0ef          	jal	ra,4bc <saveToCSV>
    saveToCSV("Qfiltred.csv", ecgData_filtered, (((numSamples + 11)/2 +11 ) /2 - 11)*4 -11);
    30c4:	fffb87b7          	lui	a5,0xfffb8
    30c8:	fc078793          	addi	a5,a5,-64 # fffb7fc0 <__alt_data_end+0xfff3dea0>
    30cc:	008787b3          	add	a5,a5,s0
    30d0:	16c7a783          	lw	a5,364(a5)
    30d4:	00b78793          	addi	a5,a5,11
    30d8:	01f7d713          	srli	a4,a5,0x1f
    30dc:	00f707b3          	add	a5,a4,a5
    30e0:	4017d793          	srai	a5,a5,0x1
    30e4:	00b78793          	addi	a5,a5,11
    30e8:	01f7d713          	srli	a4,a5,0x1f
    30ec:	00f707b3          	add	a5,a4,a5
    30f0:	4017d793          	srai	a5,a5,0x1
    30f4:	ff578793          	addi	a5,a5,-11
    30f8:	00279793          	slli	a5,a5,0x2
    30fc:	ff578713          	addi	a4,a5,-11
    3100:	fffb87b7          	lui	a5,0xfffb8
    3104:	fc078793          	addi	a5,a5,-64 # fffb7fc0 <__alt_data_end+0xfff3dea0>
    3108:	008787b3          	add	a5,a5,s0
    310c:	00070613          	mv	a2,a4
    3110:	1987a583          	lw	a1,408(a5)
    3114:	0002b7b7          	lui	a5,0x2b
    3118:	76078513          	addi	a0,a5,1888 # 2b760 <__flash_rodata_start+0x1c0>
    311c:	ba0fd0ef          	jal	ra,4bc <saveToCSV>
    saveToCSV("QQcorrected.csv", Y, numSamples);
    3120:	fffb87b7          	lui	a5,0xfffb8
    3124:	fc078793          	addi	a5,a5,-64 # fffb7fc0 <__alt_data_end+0xfff3dea0>
    3128:	008787b3          	add	a5,a5,s0
    312c:	ffff9737          	lui	a4,0xffff9
    3130:	c1870713          	addi	a4,a4,-1000 # ffff8c18 <__alt_data_end+0xfff7eaf8>
    3134:	fc070713          	addi	a4,a4,-64
    3138:	00870733          	add	a4,a4,s0
    313c:	16c7a603          	lw	a2,364(a5)
    3140:	00070593          	mv	a1,a4
    3144:	0002b7b7          	lui	a5,0x2b
    3148:	77078513          	addi	a0,a5,1904 # 2b770 <__flash_rodata_start+0x1d0>
    314c:	b70fd0ef          	jal	ra,4bc <saveToCSV>


    double mse = calculateMSE(ecgoriginal, Y, numSamples );
    3150:	fffb87b7          	lui	a5,0xfffb8
    3154:	fc078793          	addi	a5,a5,-64 # fffb7fc0 <__alt_data_end+0xfff3dea0>
    3158:	008784b3          	add	s1,a5,s0
    315c:	fffb87b7          	lui	a5,0xfffb8
    3160:	fc078793          	addi	a5,a5,-64 # fffb7fc0 <__alt_data_end+0xfff3dea0>
    3164:	008787b3          	add	a5,a5,s0
    3168:	ffff9737          	lui	a4,0xffff9
    316c:	c1870713          	addi	a4,a4,-1000 # ffff8c18 <__alt_data_end+0xfff7eaf8>
    3170:	fc070713          	addi	a4,a4,-64
    3174:	008706b3          	add	a3,a4,s0
    3178:	fffc6737          	lui	a4,0xfffc6
    317c:	45870713          	addi	a4,a4,1112 # fffc6458 <__alt_data_end+0xfff4c338>
    3180:	fc070713          	addi	a4,a4,-64
    3184:	00870733          	add	a4,a4,s0
    3188:	16c7a603          	lw	a2,364(a5)
    318c:	00068593          	mv	a1,a3
    3190:	00070513          	mv	a0,a4
    3194:	f34fe0ef          	jal	ra,18c8 <calculateMSE>
    3198:	1aa4a823          	sw	a0,432(s1)
    319c:	1ab4aa23          	sw	a1,436(s1)
    double PRD = calculatePRD(ecgoriginal, Y, numSamples);
    31a0:	fffb87b7          	lui	a5,0xfffb8
    31a4:	fc078793          	addi	a5,a5,-64 # fffb7fc0 <__alt_data_end+0xfff3dea0>
    31a8:	008784b3          	add	s1,a5,s0
    31ac:	fffb87b7          	lui	a5,0xfffb8
    31b0:	fc078793          	addi	a5,a5,-64 # fffb7fc0 <__alt_data_end+0xfff3dea0>
    31b4:	008787b3          	add	a5,a5,s0
    31b8:	ffff9737          	lui	a4,0xffff9
    31bc:	c1870713          	addi	a4,a4,-1000 # ffff8c18 <__alt_data_end+0xfff7eaf8>
    31c0:	fc070713          	addi	a4,a4,-64
    31c4:	008706b3          	add	a3,a4,s0
    31c8:	fffc6737          	lui	a4,0xfffc6
    31cc:	45870713          	addi	a4,a4,1112 # fffc6458 <__alt_data_end+0xfff4c338>
    31d0:	fc070713          	addi	a4,a4,-64
    31d4:	00870733          	add	a4,a4,s0
    31d8:	16c7a603          	lw	a2,364(a5)
    31dc:	00068593          	mv	a1,a3
    31e0:	00070513          	mv	a0,a4
    31e4:	9a0fe0ef          	jal	ra,1384 <calculatePRD>
    31e8:	1aa4ac23          	sw	a0,440(s1)
    31ec:	1ab4ae23          	sw	a1,444(s1)
    double SNRout = calculateSNRout(ecgoriginal, Y, numSamples);
    31f0:	fffb87b7          	lui	a5,0xfffb8
    31f4:	fc078793          	addi	a5,a5,-64 # fffb7fc0 <__alt_data_end+0xfff3dea0>
    31f8:	008784b3          	add	s1,a5,s0
    31fc:	fffb87b7          	lui	a5,0xfffb8
    3200:	fc078793          	addi	a5,a5,-64 # fffb7fc0 <__alt_data_end+0xfff3dea0>
    3204:	008787b3          	add	a5,a5,s0
    3208:	ffff9737          	lui	a4,0xffff9
    320c:	c1870713          	addi	a4,a4,-1000 # ffff8c18 <__alt_data_end+0xfff7eaf8>
    3210:	fc070713          	addi	a4,a4,-64
    3214:	008706b3          	add	a3,a4,s0
    3218:	fffc6737          	lui	a4,0xfffc6
    321c:	45870713          	addi	a4,a4,1112 # fffc6458 <__alt_data_end+0xfff4c338>
    3220:	fc070713          	addi	a4,a4,-64
    3224:	00870733          	add	a4,a4,s0
    3228:	16c7a603          	lw	a2,364(a5)
    322c:	00068593          	mv	a1,a3
    3230:	00070513          	mv	a0,a4
    3234:	b1cfe0ef          	jal	ra,1550 <calculateSNRout>
    3238:	1ca4a023          	sw	a0,448(s1)
    323c:	1cb4a223          	sw	a1,452(s1)
    double SNRimp = calculateSNRimp(ecgoriginal, ecgData, Y, numSamples);
    3240:	fffb87b7          	lui	a5,0xfffb8
    3244:	fc078793          	addi	a5,a5,-64 # fffb7fc0 <__alt_data_end+0xfff3dea0>
    3248:	008784b3          	add	s1,a5,s0
    324c:	fffb87b7          	lui	a5,0xfffb8
    3250:	fc078793          	addi	a5,a5,-64 # fffb7fc0 <__alt_data_end+0xfff3dea0>
    3254:	008787b3          	add	a5,a5,s0
    3258:	ffff9737          	lui	a4,0xffff9
    325c:	c1870713          	addi	a4,a4,-1000 # ffff8c18 <__alt_data_end+0xfff7eaf8>
    3260:	fc070713          	addi	a4,a4,-64
    3264:	00870633          	add	a2,a4,s0
    3268:	fffbf737          	lui	a4,0xfffbf
    326c:	3d870713          	addi	a4,a4,984 # fffbf3d8 <__alt_data_end+0xfff452b8>
    3270:	fc070713          	addi	a4,a4,-64
    3274:	008705b3          	add	a1,a4,s0
    3278:	fffc6737          	lui	a4,0xfffc6
    327c:	45870713          	addi	a4,a4,1112 # fffc6458 <__alt_data_end+0xfff4c338>
    3280:	fc070713          	addi	a4,a4,-64
    3284:	00870733          	add	a4,a4,s0
    3288:	16c7a683          	lw	a3,364(a5)
    328c:	00070513          	mv	a0,a4
    3290:	c68fe0ef          	jal	ra,16f8 <calculateSNRimp>
    3294:	1ca4a423          	sw	a0,456(s1)
    3298:	1cb4a623          	sw	a1,460(s1)
    double rmse;
   rmse = sqrt(mse);
    329c:	fffb87b7          	lui	a5,0xfffb8
    32a0:	fc078793          	addi	a5,a5,-64 # fffb7fc0 <__alt_data_end+0xfff3dea0>
    32a4:	008784b3          	add	s1,a5,s0
    32a8:	fffb87b7          	lui	a5,0xfffb8
    32ac:	fc078793          	addi	a5,a5,-64 # fffb7fc0 <__alt_data_end+0xfff3dea0>
    32b0:	008787b3          	add	a5,a5,s0
    32b4:	1b07a503          	lw	a0,432(a5)
    32b8:	1b47a583          	lw	a1,436(a5)
    32bc:	54d240ef          	jal	ra,28008 <sqrt>
    32c0:	1ca4a823          	sw	a0,464(s1)
    32c4:	1cb4aa23          	sw	a1,468(s1)



int longueur_signal = sizeof(finalSignal) / sizeof(finalSignal[0]);
    32c8:	fffb87b7          	lui	a5,0xfffb8
    32cc:	fc078793          	addi	a5,a5,-64 # fffb7fc0 <__alt_data_end+0xfff3dea0>
    32d0:	008787b3          	add	a5,a5,s0
    32d4:	00001737          	lui	a4,0x1
    32d8:	e7c70713          	addi	a4,a4,-388 # e7c <applyADTF+0x324>
    32dc:	18e7ae23          	sw	a4,412(a5)

    // Affichage de la longueur du signal
    printf("Longueur du signal original  : %d\n", longueur_signal);
    32e0:	fffb87b7          	lui	a5,0xfffb8
    32e4:	fc078793          	addi	a5,a5,-64 # fffb7fc0 <__alt_data_end+0xfff3dea0>
    32e8:	008787b3          	add	a5,a5,s0
    32ec:	19c7a583          	lw	a1,412(a5)
    32f0:	0002b7b7          	lui	a5,0x2b
    32f4:	78078513          	addi	a0,a5,1920 # 2b780 <__flash_rodata_start+0x1e0>
    32f8:	338040ef          	jal	ra,7630 <printf>
end2 = clock();
    32fc:	399010ef          	jal	ra,4e94 <clock>
    3300:	00050713          	mv	a4,a0
    3304:	000317b7          	lui	a5,0x31
    3308:	d4e7a223          	sw	a4,-700(a5) # 30d44 <end2>
cpu_time_used2 = ((double) (end2 - start2)) / CLOCKS_PER_SEC;
    330c:	000317b7          	lui	a5,0x31
    3310:	d447a703          	lw	a4,-700(a5) # 30d44 <end2>
    3314:	000317b7          	lui	a5,0x31
    3318:	d407a783          	lw	a5,-704(a5) # 30d40 <start2>
    331c:	40f707b3          	sub	a5,a4,a5
    3320:	00078513          	mv	a0,a5
    3324:	5a5200ef          	jal	ra,240c8 <__floatunsidf>
    3328:	00050713          	mv	a4,a0
    332c:	00058793          	mv	a5,a1
    3330:	0002c6b7          	lui	a3,0x2c
    3334:	9786a603          	lw	a2,-1672(a3) # 2b978 <__flash_rodata_start+0x3d8>
    3338:	97c6a683          	lw	a3,-1668(a3)
    333c:	00070513          	mv	a0,a4
    3340:	00078593          	mv	a1,a5
    3344:	1381f0ef          	jal	ra,2247c <__divdf3>
    3348:	00050713          	mv	a4,a0
    334c:	00058793          	mv	a5,a1
    3350:	000316b7          	lui	a3,0x31
    3354:	d4e6a423          	sw	a4,-696(a3) # 30d48 <cpu_time_used2>
    3358:	d4f6a623          	sw	a5,-692(a3)
printf("Temps d'execution de total: %f secondes\n", cpu_time_used2);
    335c:	000317b7          	lui	a5,0x31
    3360:	d487a703          	lw	a4,-696(a5) # 30d48 <cpu_time_used2>
    3364:	d4c7a783          	lw	a5,-692(a5)
    3368:	00070613          	mv	a2,a4
    336c:	00078693          	mv	a3,a5
    3370:	0002b7b7          	lui	a5,0x2b
    3374:	7a478513          	addi	a0,a5,1956 # 2b7a4 <__flash_rodata_start+0x204>
    3378:	2b8040ef          	jal	ra,7630 <printf>
    return 0;
    337c:	00000793          	li	a5,0
    3380:	fffb8737          	lui	a4,0xfffb8
    3384:	09470713          	addi	a4,a4,148 # fffb8094 <__alt_data_end+0xfff3df74>
    3388:	00870733          	add	a4,a4,s0
    338c:	00072103          	lw	sp,0(a4)

}
    3390:	00078713          	mv	a4,a5
    3394:	000317b7          	lui	a5,0x31
    3398:	fbc42683          	lw	a3,-68(s0)
    339c:	dbc7a783          	lw	a5,-580(a5) # 30dbc <__stack_chk_guard>
    33a0:	00f6c7b3          	xor	a5,a3,a5
    33a4:	00000693          	li	a3,0
    33a8:	00078463          	beqz	a5,33b0 <main+0x187c>
    33ac:	199040ef          	jal	ra,7d44 <__stack_chk_fail>
    33b0:	00070513          	mv	a0,a4
    33b4:	fffb82b7          	lui	t0,0xfffb8
    33b8:	09028293          	addi	t0,t0,144 # fffb8090 <__alt_data_end+0xfff3df70>
    33bc:	00540133          	add	sp,s0,t0
    33c0:	000472b7          	lui	t0,0x47
    33c4:	78028293          	addi	t0,t0,1920 # 47780 <end+0x168f8>
    33c8:	00510133          	add	sp,sp,t0
    33cc:	7ec12083          	lw	ra,2028(sp)
    33d0:	7e812403          	lw	s0,2024(sp)
    33d4:	7e412483          	lw	s1,2020(sp)
    33d8:	7e012903          	lw	s2,2016(sp)
    33dc:	7dc12983          	lw	s3,2012(sp)
    33e0:	7d812a03          	lw	s4,2008(sp)
    33e4:	7d412a83          	lw	s5,2004(sp)
    33e8:	7d012b03          	lw	s6,2000(sp)
    33ec:	7cc12b83          	lw	s7,1996(sp)
    33f0:	7c812c03          	lw	s8,1992(sp)
    33f4:	7c412c83          	lw	s9,1988(sp)
    33f8:	7c012d03          	lw	s10,1984(sp)
    33fc:	7bc12d83          	lw	s11,1980(sp)
    3400:	7f010113          	addi	sp,sp,2032
    3404:	00008067          	ret

00003408 <_start>:
    .type _start, @function
_start:
#if ALT_CPU_HAS_CSR_SUPPORT
    /* assume that we are in machine mode on startup */
    /* setup trap to catch anything that goes wrong early in the boot process */
    la t0, trap_vector
    3408:	ffffd297          	auipc	t0,0xffffd
    340c:	c1828293          	addi	t0,t0,-1000 # 20 <__flash_exceptions_start>
    csrw mtvec, t0
    3410:	30529073          	csrw	mtvec,t0

    /* disable all interrupt */
    li t0, 0x88
    3414:	08800293          	li	t0,136
    csrc mstatus, t0
    3418:	3002b073          	csrc	mstatus,t0
    csrw mie, zero
    341c:	30401073          	csrw	mie,zero
    csrw mip, zero
    3420:	34401073          	csrw	mip,zero
 * RTL simulations can ensure the data cache tag RAM is already
 * initialized so skipping this speeds up RTL simulation.
 */
#ifndef ALT_SIM_OPTIMIZE
#if ALT_CPU_DCACHE_SIZE > 0
    li t0, ALT_CPU_DCACHE_SIZE
    3424:	000012b7          	lui	t0,0x1
0:
    /* cbo.inval.ix */
    .insn i 0x0F, 0x2, zero, t0, 0x080
    3428:	0802a00f          	.4byte	0x802a00f
    addi t0, t0, -ALT_CPU_DCACHE_LINE_SIZE
    342c:	fe028293          	addi	t0,t0,-32 # fe0 <correctHighestPeaks+0x80>
    bnez t0, 0b
    3430:	fe029ce3          	bnez	t0,3428 <_start+0x20>
#endif /* Initialize Data Cache */
#endif /* ALT_SIM_OPTIMIZE */

    .option push
    .option norelax
    la gp, __global_pointer$
    3434:	0002c197          	auipc	gp,0x2c
    3438:	4dc18193          	addi	gp,gp,1244 # 2f910 <__global_pointer$>

    /*
     * Now that the caches are initialized, set up the stack pointer and global pointer.
     * The values provided by the linker are assumed to be correctly aligned.
     */
    la sp, __alt_stack_pointer
    343c:	00077117          	auipc	sp,0x77
    3440:	ce410113          	addi	sp,sp,-796 # 7a120 <__alt_data_end>
    /* Log that the BSS is about to be cleared. */
#ifdef ALT_LOG_ENABLE
    ALT_LOG_PUTS(alt_log_msg_bss)
#endif /* ALT_LOG_ENABLE */

    la t1, __bss_start
    3444:	0002e317          	auipc	t1,0x2e
    3448:	8f430313          	addi	t1,t1,-1804 # 30d38 <start>
    la t2, __bss_end
    344c:	0002e397          	auipc	t2,0x2e
    3450:	a3c38393          	addi	t2,t2,-1476 # 30e88 <end>
0:
    sw zero, (t1)
    3454:	00032023          	sw	zero,0(t1)
    addi t1, t1, 4
    3458:	00430313          	addi	t1,t1,4
    bltu t1, t2, 0b
    345c:	fe736ce3          	bltu	t1,t2,3454 <_start+0x4c>
/*
 * The alt_load() facility is normally used when there is no bootloader.
 * It copies some sections into RAM so it acts like a mini-bootloader.
 */
#ifdef CALL_ALT_LOAD
    call alt_load
    3460:	0c8000ef          	jal	ra,3528 <alt_load>
 */
#ifndef ALT_SIM_OPTIMIZE
.globl __tbss_start
.globl __tbss_end

    la t1, __tbss_start
    3464:	0002a317          	auipc	t1,0x2a
    3468:	0f430313          	addi	t1,t1,244 # 2d558 <jtag>
    la t2, __tbss_end
    346c:	0002a397          	auipc	t2,0x2a
    3470:	0ec38393          	addi	t2,t2,236 # 2d558 <jtag>
    
    // Check if we need to skip this (if .tbss is empty)
    bgeu t1, t2, 1f
    3474:	00737863          	bgeu	t1,t2,3484 <_start+0x7c>
0:
    sw zero, (t1)
    3478:	00032023          	sw	zero,0(t1)
    addi t1, t1, 4
    347c:	00430313          	addi	t1,t1,4
    bltu t1, t2, 0b
    3480:	fe736ce3          	bltu	t1,t2,3478 <_start+0x70>
// Copy tdata to tdata golden source location
.globl __tdata_start
.globl __tdata_end
.globl __tdata_source

    la t0, __tdata_start
    3484:	0002a297          	auipc	t0,0x2a
    3488:	0d428293          	addi	t0,t0,212 # 2d558 <jtag>
    la t1, __tdata_end
    348c:	0002a317          	auipc	t1,0x2a
    3490:	0cc30313          	addi	t1,t1,204 # 2d558 <jtag>
    la t2, __tdata_source
    3494:	0002a397          	auipc	t2,0x2a
    3498:	0c438393          	addi	t2,t2,196 # 2d558 <jtag>

    // Check if we need to skip this (if .tdata is empty)
    bgeu t0, t1, 1f
    349c:	0062fc63          	bgeu	t0,t1,34b4 <_start+0xac>
0:
    lw s1, (t0)
    34a0:	0002a483          	lw	s1,0(t0)
    sw s1, (t2)
    34a4:	0093a023          	sw	s1,0(t2)
    addi t0, t0, 4
    34a8:	00428293          	addi	t0,t0,4
    addi t2, t2, 4
    34ac:	00438393          	addi	t2,t2,4
    bltu t0, t1, 0b
    34b0:	fe62e8e3          	bltu	t0,t1,34a0 <_start+0x98>
1:

// Assign thread pointer register (tp) to main thread tls base
.globl __tls_base
    la tp, __tls_base
    34b4:	0002a217          	auipc	tp,0x2a
    34b8:	0a420213          	addi	tp,tp,164 # 2d558 <jtag>
#ifdef ALT_LOG_ENABLE
    ALT_LOG_PUTS(alt_log_msg_alt_main)
#endif /* ALT_LOG_ENABLE */

    /* Call the C entry point. It should never return. */
    call alt_main
    34bc:	0d8000ef          	jal	ra,3594 <alt_main>

000034c0 <alt_after_alt_main>:

    /* Wait in infinite loop in case alt_main does return. */
alt_after_alt_main:
    j alt_after_alt_main
    34c0:	0000006f          	j	34c0 <alt_after_alt_main>

000034c4 <alt_load_section>:
    34c4:	fe010113          	addi	sp,sp,-32
    34c8:	00812e23          	sw	s0,28(sp)
 */

static void ALT_INLINE alt_load_section (alt_u32* from, 
                                         alt_u32* to, 
                                         alt_u32* end)
{
    34cc:	02010413          	addi	s0,sp,32
    34d0:	fea42623          	sw	a0,-20(s0)
    34d4:	feb42423          	sw	a1,-24(s0)
    34d8:	fec42223          	sw	a2,-28(s0)
  if (to != from)
    34dc:	fe842703          	lw	a4,-24(s0)
    34e0:	fec42783          	lw	a5,-20(s0)
    34e4:	02f70a63          	beq	a4,a5,3518 <alt_load_section+0x54>
  {
    while( to != end )
    34e8:	0240006f          	j	350c <alt_load_section+0x48>
    {
      *to++ = *from++;
    34ec:	fec42703          	lw	a4,-20(s0)
    34f0:	00470793          	addi	a5,a4,4
    34f4:	fef42623          	sw	a5,-20(s0)
    34f8:	fe842783          	lw	a5,-24(s0)
    34fc:	00478693          	addi	a3,a5,4
    3500:	fed42423          	sw	a3,-24(s0)
    3504:	00072703          	lw	a4,0(a4)
    3508:	00e7a023          	sw	a4,0(a5)
    while( to != end )
    350c:	fe842703          	lw	a4,-24(s0)
    3510:	fe442783          	lw	a5,-28(s0)
    3514:	fcf71ce3          	bne	a4,a5,34ec <alt_load_section+0x28>
    }
  }
}
    3518:	00000013          	nop
    351c:	01c12403          	lw	s0,28(sp)
    3520:	02010113          	addi	sp,sp,32
    3524:	00008067          	ret

00003528 <alt_load>:
 * there is no bootloader, so this application is responsible for loading to
 * RAM any sections that are required.
 */  

void alt_load (void)
{
    3528:	ff010113          	addi	sp,sp,-16
    352c:	00112623          	sw	ra,12(sp)
    3530:	00812423          	sw	s0,8(sp)
    3534:	01010413          	addi	s0,sp,16
  /* 
   * Copy the .rwdata section. 
   */

  alt_load_section (&__flash_rwdata_start, 
    3538:	83818613          	addi	a2,gp,-1992 # 2f148 <__flash_rwdata_start>
    353c:	0002d7b7          	lui	a5,0x2d
    3540:	55878593          	addi	a1,a5,1368 # 2d558 <jtag>
    3544:	83818513          	addi	a0,gp,-1992 # 2f148 <__flash_rwdata_start>
    3548:	f7dff0ef          	jal	ra,34c4 <alt_load_section>

  /*
   * Copy the exception handler.
   */

  alt_load_section (&__flash_exceptions_start, 
    354c:	2bc00613          	li	a2,700
    3550:	02000593          	li	a1,32
    3554:	02000513          	li	a0,32
    3558:	f6dff0ef          	jal	ra,34c4 <alt_load_section>

  /*
   * Copy the .rodata section.
   */

  alt_load_section (&__flash_rodata_start, 
    355c:	0002d7b7          	lui	a5,0x2d
    3560:	55878613          	addi	a2,a5,1368 # 2d558 <jtag>
    3564:	0002b7b7          	lui	a5,0x2b
    3568:	5a078593          	addi	a1,a5,1440 # 2b5a0 <__flash_rodata_start>
    356c:	0002b7b7          	lui	a5,0x2b
    3570:	5a078513          	addi	a0,a5,1440 # 2b5a0 <__flash_rodata_start>
    3574:	f51ff0ef          	jal	ra,34c4 <alt_load_section>
  
  /*
   * Now ensure that the caches are in synch.
   */
  
  alt_dcache_flush_all();
    3578:	5e1000ef          	jal	ra,4358 <alt_dcache_flush_all>
  alt_icache_flush_all();
    357c:	040010ef          	jal	ra,45bc <alt_icache_flush_all>
}
    3580:	00000013          	nop
    3584:	00c12083          	lw	ra,12(sp)
    3588:	00812403          	lw	s0,8(sp)
    358c:	01010113          	addi	sp,sp,16
    3590:	00008067          	ret

00003594 <alt_main>:
 * devices/filesystems/components in the system; and call the entry point for
 * the users application, i.e. main().
 */

void alt_main (void)
{
    3594:	fe010113          	addi	sp,sp,-32
    3598:	00112e23          	sw	ra,28(sp)
    359c:	00812c23          	sw	s0,24(sp)
    35a0:	02010413          	addi	s0,sp,32
#endif

  /* ALT LOG - please see HAL/sys/alt_log_printf.h for details */
  ALT_LOG_PRINT_BOOT("[alt_main.c] Entering alt_main, calling alt_irq_init.\r\n");
  /* Initialize the interrupt controller. */
  alt_irq_init (NULL);
    35a4:	00000513          	li	a0,0
    35a8:	074000ef          	jal	ra,361c <alt_irq_init>

  /* Initialize the operating system */
  ALT_LOG_PRINT_BOOT("[alt_main.c] Done alt_irq_init, calling alt_os_init.\r\n");
  ALT_OS_INIT();
    35ac:	00000013          	nop
  ALT_LOG_PRINT_BOOT("[alt_main.c] Done OS Init, calling alt_sem_create.\r\n");
  ALT_SEM_CREATE (&alt_fd_list_lock, 1);

  /* Initialize the device drivers/software components. */
  ALT_LOG_PRINT_BOOT("[alt_main.c] Calling alt_sys_init.\r\n");
  alt_sys_init();
    35b0:	0a4000ef          	jal	ra,3654 <alt_sys_init>
   * devices be present (not equal to /dev/null) and if direct drivers
   * aren't being used.
   */

    ALT_LOG_PRINT_BOOT("[alt_main.c] Redirecting IO.\r\n");
    alt_io_redirect(ALT_STDOUT, ALT_STDIN, ALT_STDERR);
    35b4:	0002c7b7          	lui	a5,0x2c
    35b8:	9a078613          	addi	a2,a5,-1632 # 2b9a0 <__flash_rodata_start+0x400>
    35bc:	0002c7b7          	lui	a5,0x2c
    35c0:	9a078593          	addi	a1,a5,-1632 # 2b9a0 <__flash_rodata_start+0x400>
    35c4:	0002c7b7          	lui	a5,0x2c
    35c8:	9a078513          	addi	a0,a5,-1632 # 2b9a0 <__flash_rodata_start+0x400>
    35cc:	2bc010ef          	jal	ra,4888 <alt_io_redirect>
  /* 
   * Call the C++ constructors 
   */

  ALT_LOG_PRINT_BOOT("[alt_main.c] Calling C++ constructors.\r\n");
  _do_ctors ();
    35d0:	72d000ef          	jal	ra,44fc <_do_ctors>
   * redefined as _exit()). This is in the interest of reducing code footprint,
   * in that the atexit() overhead is removed when it's not needed.
   */

  ALT_LOG_PRINT_BOOT("[alt_main.c] Calling atexit.\r\n");
  atexit (_do_dtors);
    35d4:	000047b7          	lui	a5,0x4
    35d8:	55c78513          	addi	a0,a5,1372 # 455c <_do_dtors>
    35dc:	0a5010ef          	jal	ra,4e80 <atexit>
  ALT_LOG_PRINT_BOOT("[alt_main.c] Calling main.\r\n");

#ifdef ALT_NO_EXIT
  main (alt_argc, alt_argv, alt_envp);
#else
  result = main (alt_argc, alt_argv, alt_envp);
    35e0:	000317b7          	lui	a5,0x31
    35e4:	d607a703          	lw	a4,-672(a5) # 30d60 <alt_argc>
    35e8:	000317b7          	lui	a5,0x31
    35ec:	d647a683          	lw	a3,-668(a5) # 30d64 <alt_argv>
    35f0:	000317b7          	lui	a5,0x31
    35f4:	d687a783          	lw	a5,-664(a5) # 30d68 <alt_envp>
    35f8:	00078613          	mv	a2,a5
    35fc:	00068593          	mv	a1,a3
    3600:	00070513          	mv	a0,a4
    3604:	d30fe0ef          	jal	ra,1b34 <main>
    3608:	fea42623          	sw	a0,-20(s0)
  close(STDOUT_FILENO);
    360c:	00100513          	li	a0,1
    3610:	259070ef          	jal	ra,b068 <close>
  exit (result);
    3614:	fec42503          	lw	a0,-20(s0)
    3618:	0c5010ef          	jal	ra,4edc <exit>

0000361c <alt_irq_init>:
 * The "base" parameter is ignored and only
 * present for backwards-compatibility.
 */

void alt_irq_init ( const void* base )
{
    361c:	fe010113          	addi	sp,sp,-32
    3620:	00112e23          	sw	ra,28(sp)
    3624:	00812c23          	sw	s0,24(sp)
    3628:	02010413          	addi	s0,sp,32
    362c:	fea42623          	sw	a0,-20(s0)
    INTEL_NIOSV_G_IRQ_INIT ( NIOSVPROCESSOR, niosvprocessor);
    3630:	53c010ef          	jal	ra,4b6c <intel_niosv_irq_init>
    NIOSV_SET_CSR(NIOSV_MSTATUS_CSR, NIOSV_MSTATUS_MIE_MASK);
    3634:	00800793          	li	a5,8
    3638:	3007a073          	csrs	mstatus,a5
}
    363c:	00000013          	nop
    alt_irq_cpu_enable_interrupts();
}
    3640:	00000013          	nop
    3644:	01c12083          	lw	ra,28(sp)
    3648:	01812403          	lw	s0,24(sp)
    364c:	02010113          	addi	sp,sp,32
    3650:	00008067          	ret

00003654 <alt_sys_init>:
 * Initialize the non-interrupt controller devices.
 * Called after alt_irq_init().
 */

void alt_sys_init( void )
{
    3654:	fe010113          	addi	sp,sp,-32
    3658:	00112e23          	sw	ra,28(sp)
    365c:	00812c23          	sw	s0,24(sp)
    3660:	02010413          	addi	s0,sp,32
    ALTERA_AVALON_JTAG_UART_INIT ( JTAG, jtag);
    3664:	00000613          	li	a2,0
    3668:	00000593          	li	a1,0
    366c:	0002d7b7          	lui	a5,0x2d
    3670:	58078513          	addi	a0,a5,1408 # 2d580 <jtag+0x28>
    3674:	1f0000ef          	jal	ra,3864 <altera_avalon_jtag_uart_init>
    3678:	0002d7b7          	lui	a5,0x2d
    367c:	55878513          	addi	a0,a5,1368 # 2d558 <jtag>
    3680:	54d000ef          	jal	ra,43cc <alt_dev_reg>
    3684:	3e800793          	li	a5,1000
    3688:	fef42623          	sw	a5,-20(s0)
 * in order to initialise the value of the clock frequency.
 */

static ALT_INLINE int ALT_ALWAYS_INLINE alt_sysclk_init (alt_u32 nticks)
{
  if (! _alt_tick_rate)
    368c:	000317b7          	lui	a5,0x31
    3690:	d707a783          	lw	a5,-656(a5) # 30d70 <_alt_tick_rate>
    3694:	00079a63          	bnez	a5,36a8 <alt_sys_init+0x54>
  {
    _alt_tick_rate = nticks;
    3698:	000317b7          	lui	a5,0x31
    369c:	fec42703          	lw	a4,-20(s0)
    36a0:	d6e7a823          	sw	a4,-656(a5) # 30d70 <_alt_tick_rate>
    return 0;
    36a4:	0080006f          	j	36ac <alt_sys_init+0x58>
  }
  else
  {
    return -1;
    36a8:	00000013          	nop
    36ac:	000057b7          	lui	a5,0x5
    36b0:	d9878793          	addi	a5,a5,-616 # 4d98 <alt_niosv_timer_sc_isr>
    36b4:	fef42423          	sw	a5,-24(s0)
alt_u64 alt_niosv_mtimecmp_get();
void alt_niosv_mtimecmp_interrupt_init();
extern alt_niosv_timer_isr_t alt_niosv_timer_interrupt_handler;

static ALT_INLINE void ALT_ALWAYS_INLINE alt_niosv_register_mtimecmp_interrupt_handle(alt_niosv_timer_isr_t handle) {
    alt_niosv_timer_interrupt_handler = handle;
    36b8:	000317b7          	lui	a5,0x31
    36bc:	fe842703          	lw	a4,-24(s0)
    36c0:	d4e7ae23          	sw	a4,-676(a5) # 30d5c <alt_niosv_timer_interrupt_handler>
}
    36c4:	00000013          	nop
    INTEL_NIOSV_G_INIT ( NIOSVPROCESSOR, niosvprocessor);
    36c8:	77c010ef          	jal	ra,4e44 <alt_niosv_mtimecmp_interrupt_init>
    36cc:	00000613          	li	a2,0
    36d0:	00000593          	li	a1,0
    36d4:	00000513          	li	a0,0
    36d8:	6c0010ef          	jal	ra,4d98 <alt_niosv_timer_sc_isr>
}
    36dc:	00000013          	nop
    36e0:	01c12083          	lw	ra,28(sp)
    36e4:	01812403          	lw	s0,24(sp)
    36e8:	02010113          	addi	sp,sp,32
    36ec:	00008067          	ret

000036f0 <altera_avalon_jtag_uart_read_fd>:
 *
 */

int 
altera_avalon_jtag_uart_read_fd(alt_fd* fd, char* buffer, int space)
{
    36f0:	fd010113          	addi	sp,sp,-48
    36f4:	02112623          	sw	ra,44(sp)
    36f8:	02812423          	sw	s0,40(sp)
    36fc:	03010413          	addi	s0,sp,48
    3700:	fca42e23          	sw	a0,-36(s0)
    3704:	fcb42c23          	sw	a1,-40(s0)
    3708:	fcc42a23          	sw	a2,-44(s0)
    altera_avalon_jtag_uart_dev* dev = (altera_avalon_jtag_uart_dev*) fd->dev; 
    370c:	fdc42783          	lw	a5,-36(s0)
    3710:	0007a783          	lw	a5,0(a5)
    3714:	fef42623          	sw	a5,-20(s0)

    return altera_avalon_jtag_uart_read(&dev->state, buffer, space,
    3718:	fec42783          	lw	a5,-20(s0)
    371c:	02878713          	addi	a4,a5,40
    3720:	fdc42783          	lw	a5,-36(s0)
    3724:	0087a783          	lw	a5,8(a5)
    3728:	00078693          	mv	a3,a5
    372c:	fd442603          	lw	a2,-44(s0)
    3730:	fd842583          	lw	a1,-40(s0)
    3734:	00070513          	mv	a0,a4
    3738:	64c000ef          	jal	ra,3d84 <altera_avalon_jtag_uart_read>
    373c:	00050793          	mv	a5,a0
      fd->fd_flags);
}
    3740:	00078513          	mv	a0,a5
    3744:	02c12083          	lw	ra,44(sp)
    3748:	02812403          	lw	s0,40(sp)
    374c:	03010113          	addi	sp,sp,48
    3750:	00008067          	ret

00003754 <altera_avalon_jtag_uart_write_fd>:

int 
altera_avalon_jtag_uart_write_fd(alt_fd* fd, const char* buffer, int space)
{
    3754:	fd010113          	addi	sp,sp,-48
    3758:	02112623          	sw	ra,44(sp)
    375c:	02812423          	sw	s0,40(sp)
    3760:	03010413          	addi	s0,sp,48
    3764:	fca42e23          	sw	a0,-36(s0)
    3768:	fcb42c23          	sw	a1,-40(s0)
    376c:	fcc42a23          	sw	a2,-44(s0)
    altera_avalon_jtag_uart_dev* dev = (altera_avalon_jtag_uart_dev*) fd->dev; 
    3770:	fdc42783          	lw	a5,-36(s0)
    3774:	0007a783          	lw	a5,0(a5)
    3778:	fef42623          	sw	a5,-20(s0)

    return altera_avalon_jtag_uart_write(&dev->state, buffer, space,
    377c:	fec42783          	lw	a5,-20(s0)
    3780:	02878713          	addi	a4,a5,40
    3784:	fdc42783          	lw	a5,-36(s0)
    3788:	0087a783          	lw	a5,8(a5)
    378c:	00078693          	mv	a3,a5
    3790:	fd442603          	lw	a2,-44(s0)
    3794:	fd842583          	lw	a1,-40(s0)
    3798:	00070513          	mv	a0,a4
    379c:	015000ef          	jal	ra,3fb0 <altera_avalon_jtag_uart_write>
    37a0:	00050793          	mv	a5,a0
      fd->fd_flags);
}
    37a4:	00078513          	mv	a0,a5
    37a8:	02c12083          	lw	ra,44(sp)
    37ac:	02812403          	lw	s0,40(sp)
    37b0:	03010113          	addi	sp,sp,48
    37b4:	00008067          	ret

000037b8 <altera_avalon_jtag_uart_close_fd>:

#ifndef ALTERA_AVALON_JTAG_UART_SMALL

int 
altera_avalon_jtag_uart_close_fd(alt_fd* fd)
{
    37b8:	fd010113          	addi	sp,sp,-48
    37bc:	02112623          	sw	ra,44(sp)
    37c0:	02812423          	sw	s0,40(sp)
    37c4:	03010413          	addi	s0,sp,48
    37c8:	fca42e23          	sw	a0,-36(s0)
    altera_avalon_jtag_uart_dev* dev = (altera_avalon_jtag_uart_dev*) fd->dev; 
    37cc:	fdc42783          	lw	a5,-36(s0)
    37d0:	0007a783          	lw	a5,0(a5)
    37d4:	fef42623          	sw	a5,-20(s0)

    return altera_avalon_jtag_uart_close(&dev->state, fd->fd_flags);
    37d8:	fec42783          	lw	a5,-20(s0)
    37dc:	02878713          	addi	a4,a5,40
    37e0:	fdc42783          	lw	a5,-36(s0)
    37e4:	0087a783          	lw	a5,8(a5)
    37e8:	00078593          	mv	a1,a5
    37ec:	00070513          	mv	a0,a4
    37f0:	428000ef          	jal	ra,3c18 <altera_avalon_jtag_uart_close>
    37f4:	00050793          	mv	a5,a0
}
    37f8:	00078513          	mv	a0,a5
    37fc:	02c12083          	lw	ra,44(sp)
    3800:	02812403          	lw	s0,40(sp)
    3804:	03010113          	addi	sp,sp,48
    3808:	00008067          	ret

0000380c <altera_avalon_jtag_uart_ioctl_fd>:

int 
altera_avalon_jtag_uart_ioctl_fd(alt_fd* fd, int req, void* arg)
{
    380c:	fd010113          	addi	sp,sp,-48
    3810:	02112623          	sw	ra,44(sp)
    3814:	02812423          	sw	s0,40(sp)
    3818:	03010413          	addi	s0,sp,48
    381c:	fca42e23          	sw	a0,-36(s0)
    3820:	fcb42c23          	sw	a1,-40(s0)
    3824:	fcc42a23          	sw	a2,-44(s0)
    altera_avalon_jtag_uart_dev* dev = (altera_avalon_jtag_uart_dev*) fd->dev;
    3828:	fdc42783          	lw	a5,-36(s0)
    382c:	0007a783          	lw	a5,0(a5)
    3830:	fef42623          	sw	a5,-20(s0)

    return altera_avalon_jtag_uart_ioctl(&dev->state, req, arg);
    3834:	fec42783          	lw	a5,-20(s0)
    3838:	02878793          	addi	a5,a5,40
    383c:	fd442603          	lw	a2,-44(s0)
    3840:	fd842583          	lw	a1,-40(s0)
    3844:	00078513          	mv	a0,a5
    3848:	43c000ef          	jal	ra,3c84 <altera_avalon_jtag_uart_ioctl>
    384c:	00050793          	mv	a5,a0
}
    3850:	00078513          	mv	a0,a5
    3854:	02c12083          	lw	ra,44(sp)
    3858:	02812403          	lw	s0,40(sp)
    385c:	03010113          	addi	sp,sp,48
    3860:	00008067          	ret

00003864 <altera_avalon_jtag_uart_init>:
 * Return 1 on sucessful IRQ register and 0 on failure.
 */

void altera_avalon_jtag_uart_init(altera_avalon_jtag_uart_state* sp, 
                                  int irq_controller_id, int irq)
{
    3864:	fd010113          	addi	sp,sp,-48
    3868:	02112623          	sw	ra,44(sp)
    386c:	02812423          	sw	s0,40(sp)
    3870:	03010413          	addi	s0,sp,48
    3874:	fca42e23          	sw	a0,-36(s0)
    3878:	fcb42c23          	sw	a1,-40(s0)
    387c:	fcc42a23          	sw	a2,-44(s0)
  ALT_FLAG_CREATE(&sp->events, 0);
  ALT_SEM_CREATE(&sp->read_lock, 1);
  ALT_SEM_CREATE(&sp->write_lock, 1);

  /* enable read interrupts at the device */
  sp->irq_enable = ALTERA_AVALON_JTAG_UART_CONTROL_RE_MSK;
    3880:	fdc42783          	lw	a5,-36(s0)
    3884:	00100713          	li	a4,1
    3888:	02e7a023          	sw	a4,32(a5)

  IOWR_ALTERA_AVALON_JTAG_UART_CONTROL(sp->base, sp->irq_enable); 
    388c:	fdc42783          	lw	a5,-36(s0)
    3890:	0207a783          	lw	a5,32(a5)
    3894:	fef42623          	sw	a5,-20(s0)
    3898:	fdc42783          	lw	a5,-36(s0)
    389c:	0007a783          	lw	a5,0(a5)
    38a0:	00478793          	addi	a5,a5,4
    38a4:	00078713          	mv	a4,a5
    38a8:	fec42783          	lw	a5,-20(s0)
    38ac:	00f72023          	sw	a5,0(a4)
  
  /* register the interrupt handler */
#ifdef ALT_ENHANCED_INTERRUPT_API_PRESENT
  alt_ic_isr_register(irq_controller_id, irq, altera_avalon_jtag_uart_irq, 
    38b0:	fd842503          	lw	a0,-40(s0)
    38b4:	fd442583          	lw	a1,-44(s0)
    38b8:	00000713          	li	a4,0
    38bc:	fdc42683          	lw	a3,-36(s0)
    38c0:	000047b7          	lui	a5,0x4
    38c4:	92478613          	addi	a2,a5,-1756 # 3924 <altera_avalon_jtag_uart_irq>
    38c8:	515000ef          	jal	ra,45dc <alt_ic_isr_register>
#else
  alt_irq_register(irq, sp, altera_avalon_jtag_uart_irq);
#endif  

  /* Register an alarm to go off every second to check for presence of host */
  sp->host_inactive = 0;
    38cc:	fdc42783          	lw	a5,-36(s0)
    38d0:	0207a223          	sw	zero,36(a5)

  if (alt_alarm_start(&sp->alarm, alt_ticks_per_second(), 
    38d4:	fdc42783          	lw	a5,-36(s0)
    38d8:	00878713          	addi	a4,a5,8
  return _alt_tick_rate;
    38dc:	000317b7          	lui	a5,0x31
    38e0:	d707a583          	lw	a1,-656(a5) # 30d70 <_alt_tick_rate>
    38e4:	fdc42683          	lw	a3,-36(s0)
    38e8:	000047b7          	lui	a5,0x4
    38ec:	b5c78613          	addi	a2,a5,-1188 # 3b5c <altera_avalon_jtag_uart_timeout>
    38f0:	00070513          	mv	a0,a4
    38f4:	0f9000ef          	jal	ra,41ec <alt_alarm_start>
    38f8:	00050793          	mv	a5,a0
    38fc:	0007da63          	bgez	a5,3910 <altera_avalon_jtag_uart_init+0xac>
    &altera_avalon_jtag_uart_timeout, sp) < 0)
  {
    /* If we can't set the alarm then record "don't know if host present" 
     * and behave as though the host is present.
     */
    sp->timeout = INT_MAX;
    3900:	fdc42783          	lw	a5,-36(s0)
    3904:	80000737          	lui	a4,0x80000
    3908:	fff74713          	not	a4,a4
    390c:	00e7a223          	sw	a4,4(a5)
  }

  /* ALT_LOG - see altera_hal/HAL/inc/sys/alt_log_printf.h */ 
  ALT_LOG_JTAG_UART_ALARM_REGISTER(sp, sp->base);
}
    3910:	00000013          	nop
    3914:	02c12083          	lw	ra,44(sp)
    3918:	02812403          	lw	s0,40(sp)
    391c:	03010113          	addi	sp,sp,48
    3920:	00008067          	ret

00003924 <altera_avalon_jtag_uart_irq>:
#ifdef ALT_ENHANCED_INTERRUPT_API_PRESENT
static void altera_avalon_jtag_uart_irq(void* context)
#else
static void altera_avalon_jtag_uart_irq(void* context, alt_u32 id)
#endif
{
    3924:	fa010113          	addi	sp,sp,-96
    3928:	04812e23          	sw	s0,92(sp)
    392c:	06010413          	addi	s0,sp,96
    3930:	faa42623          	sw	a0,-84(s0)
  altera_avalon_jtag_uart_state* sp = (altera_avalon_jtag_uart_state*) context;
    3934:	fac42783          	lw	a5,-84(s0)
    3938:	fcf42223          	sw	a5,-60(s0)
  unsigned int base = sp->base;
    393c:	fc442783          	lw	a5,-60(s0)
    3940:	0007a783          	lw	a5,0(a5)
    3944:	fcf42423          	sw	a5,-56(s0)
  unsigned int postflag=0;
    3948:	fa042c23          	sw	zero,-72(s0)
  /* ALT_LOG - see altera_hal/HAL/inc/sys/alt_log_printf.h */ 
  ALT_LOG_JTAG_UART_ISR_FUNCTION(base, sp);

  for ( ; ; )
  {
    unsigned int control = IORD_ALTERA_AVALON_JTAG_UART_CONTROL(base);
    394c:	fc842783          	lw	a5,-56(s0)
    3950:	00478793          	addi	a5,a5,4
    3954:	0007a783          	lw	a5,0(a5)
    3958:	fcf42623          	sw	a5,-52(s0)
    395c:	fcc42783          	lw	a5,-52(s0)
    3960:	fcf42823          	sw	a5,-48(s0)

    /* Return once nothing more to do */
    if ((control & (ALTERA_AVALON_JTAG_UART_CONTROL_RI_MSK | ALTERA_AVALON_JTAG_UART_CONTROL_WI_MSK)) == 0)
    3964:	fd042783          	lw	a5,-48(s0)
    3968:	3007f793          	andi	a5,a5,768
    396c:	1c078e63          	beqz	a5,3b48 <altera_avalon_jtag_uart_irq+0x224>
      break;

    if (control & ALTERA_AVALON_JTAG_UART_CONTROL_RI_MSK)
    3970:	fd042783          	lw	a5,-48(s0)
    3974:	1007f793          	andi	a5,a5,256
    3978:	0e078663          	beqz	a5,3a64 <altera_avalon_jtag_uart_irq+0x140>
    {
      /* process a read irq.  Start by assuming that there is data in the
       * receive FIFO (otherwise why would we have been interrupted?)
       */
      unsigned int data = 1 << ALTERA_AVALON_JTAG_UART_DATA_RAVAIL_OFST;
    397c:	000107b7          	lui	a5,0x10
    3980:	faf42e23          	sw	a5,-68(s0)
      for ( ; ; )
      {
        /* Check whether there is space in the buffer.  If not then we must not
         * read any characters from the buffer as they will be lost.
         */
        unsigned int next = (sp->rx_in + 1) % ALTERA_AVALON_JTAG_UART_BUF_LEN;
    3984:	fc442783          	lw	a5,-60(s0)
    3988:	0287a783          	lw	a5,40(a5) # 10028 <emul+0x2f4>
    398c:	00178793          	addi	a5,a5,1
    3990:	7ff7f793          	andi	a5,a5,2047
    3994:	fcf42a23          	sw	a5,-44(s0)
        if (next == sp->rx_out)
    3998:	fc442783          	lw	a5,-60(s0)
    399c:	02c7a783          	lw	a5,44(a5)
    39a0:	fd442703          	lw	a4,-44(s0)
    39a4:	06f70263          	beq	a4,a5,3a08 <altera_avalon_jtag_uart_irq+0xe4>
          break;

        /* Try to remove a character from the FIFO and find out whether there
         * are any more characters remaining.
         */
        data = IORD_ALTERA_AVALON_JTAG_UART_DATA(base);
    39a8:	fc842783          	lw	a5,-56(s0)
    39ac:	0007a783          	lw	a5,0(a5)
    39b0:	fcf42c23          	sw	a5,-40(s0)
    39b4:	fd842783          	lw	a5,-40(s0)
    39b8:	faf42e23          	sw	a5,-68(s0)
        
        if ((data & ALTERA_AVALON_JTAG_UART_DATA_RVALID_MSK) == 0)
    39bc:	fbc42703          	lw	a4,-68(s0)
    39c0:	000087b7          	lui	a5,0x8
    39c4:	00f777b3          	and	a5,a4,a5
    39c8:	04078463          	beqz	a5,3a10 <altera_avalon_jtag_uart_irq+0xec>
          break;

        sp->rx_buf[sp->rx_in] = (data & ALTERA_AVALON_JTAG_UART_DATA_DATA_MSK) >> ALTERA_AVALON_JTAG_UART_DATA_DATA_OFST;
    39cc:	fc442783          	lw	a5,-60(s0)
    39d0:	0287a783          	lw	a5,40(a5) # 8028 <__ssvfscanf_r+0x2c>
    39d4:	fbc42703          	lw	a4,-68(s0)
    39d8:	0ff77713          	zext.b	a4,a4
    39dc:	fc442683          	lw	a3,-60(s0)
    39e0:	00f687b3          	add	a5,a3,a5
    39e4:	02e78c23          	sb	a4,56(a5)
        sp->rx_in = (sp->rx_in + 1) % ALTERA_AVALON_JTAG_UART_BUF_LEN;
    39e8:	fc442783          	lw	a5,-60(s0)
    39ec:	0287a783          	lw	a5,40(a5)
    39f0:	00178793          	addi	a5,a5,1
    39f4:	7ff7f713          	andi	a4,a5,2047
    39f8:	fc442783          	lw	a5,-60(s0)
    39fc:	02e7a423          	sw	a4,40(a5)
 * HAL.
 */

static ALT_INLINE int ALT_ALWAYS_INLINE alt_no_error (void)
{
  return 0;
    3a00:	00000013          	nop
      {
    3a04:	f81ff06f          	j	3984 <altera_avalon_jtag_uart_irq+0x60>
          break;
    3a08:	00000013          	nop
    3a0c:	0080006f          	j	3a14 <altera_avalon_jtag_uart_irq+0xf0>
          break;
    3a10:	00000013          	nop

        /* Post an event to notify jtag_uart_read that a character has been read */
        ALT_FLAG_POST (sp->events, ALT_JTAG_UART_READ_RDY, ALT_FLAG_SET);
      }

      if (data & ALTERA_AVALON_JTAG_UART_DATA_RAVAIL_MSK)
    3a14:	fbc42703          	lw	a4,-68(s0)
    3a18:	000107b7          	lui	a5,0x10
    3a1c:	04f76463          	bltu	a4,a5,3a64 <altera_avalon_jtag_uart_irq+0x140>
      {
        /* If there is still data available here then the buffer is full 
         * so turn off receive interrupts until some space becomes available.
         */
        sp->irq_enable &= ~ALTERA_AVALON_JTAG_UART_CONTROL_RE_MSK;
    3a20:	fc442783          	lw	a5,-60(s0)
    3a24:	0207a783          	lw	a5,32(a5) # 10020 <emul+0x2ec>
    3a28:	ffe7f713          	andi	a4,a5,-2
    3a2c:	fc442783          	lw	a5,-60(s0)
    3a30:	02e7a023          	sw	a4,32(a5)
        IOWR_ALTERA_AVALON_JTAG_UART_CONTROL(base, sp->irq_enable);
    3a34:	fc442783          	lw	a5,-60(s0)
    3a38:	0207a783          	lw	a5,32(a5)
    3a3c:	fcf42e23          	sw	a5,-36(s0)
    3a40:	fc842783          	lw	a5,-56(s0)
    3a44:	00478793          	addi	a5,a5,4
    3a48:	00078713          	mv	a4,a5
    3a4c:	fdc42783          	lw	a5,-36(s0)
    3a50:	00f72023          	sw	a5,0(a4) # 80000000 <__alt_data_end+0x7ff85ee0>
        
        /* Dummy read to ensure IRQ is cleared prior to ISR completion */
        IORD_ALTERA_AVALON_JTAG_UART_CONTROL(base);
    3a54:	fc842783          	lw	a5,-56(s0)
    3a58:	00478793          	addi	a5,a5,4
    3a5c:	0007a783          	lw	a5,0(a5)
    3a60:	fef42023          	sw	a5,-32(s0)
      }
    }

    if (control & ALTERA_AVALON_JTAG_UART_CONTROL_WI_MSK)
    3a64:	fd042783          	lw	a5,-48(s0)
    3a68:	2007f793          	andi	a5,a5,512
    3a6c:	ee0780e3          	beqz	a5,394c <altera_avalon_jtag_uart_irq+0x28>
    {
      /* process a write irq */
      unsigned int space = (control & ALTERA_AVALON_JTAG_UART_CONTROL_WSPACE_MSK) >> ALTERA_AVALON_JTAG_UART_CONTROL_WSPACE_OFST;
    3a70:	fd042783          	lw	a5,-48(s0)
    3a74:	0107d793          	srli	a5,a5,0x10
    3a78:	fcf42023          	sw	a5,-64(s0)

      while (space > 0 && sp->tx_out != sp->tx_in)
    3a7c:	05c0006f          	j	3ad8 <altera_avalon_jtag_uart_irq+0x1b4>
      {
        IOWR_ALTERA_AVALON_JTAG_UART_DATA(base, sp->tx_buf[sp->tx_out]);
    3a80:	fc442783          	lw	a5,-60(s0)
    3a84:	0347a783          	lw	a5,52(a5)
    3a88:	fc442703          	lw	a4,-60(s0)
    3a8c:	00f707b3          	add	a5,a4,a5
    3a90:	00001737          	lui	a4,0x1
    3a94:	00f707b3          	add	a5,a4,a5
    3a98:	8387c783          	lbu	a5,-1992(a5)
    3a9c:	fef42223          	sw	a5,-28(s0)
    3aa0:	fc842783          	lw	a5,-56(s0)
    3aa4:	fe442703          	lw	a4,-28(s0)
    3aa8:	00e7a023          	sw	a4,0(a5)

        sp->tx_out = (sp->tx_out + 1) % ALTERA_AVALON_JTAG_UART_BUF_LEN;
    3aac:	fc442783          	lw	a5,-60(s0)
    3ab0:	0347a783          	lw	a5,52(a5)
    3ab4:	00178793          	addi	a5,a5,1
    3ab8:	7ff7f713          	andi	a4,a5,2047
    3abc:	fc442783          	lw	a5,-60(s0)
    3ac0:	02e7aa23          	sw	a4,52(a5)
        
        /* indicate that the ALT_FLAG_POST routine must be called */
        postflag=1;
    3ac4:	00100793          	li	a5,1
    3ac8:	faf42c23          	sw	a5,-72(s0)

        space--;
    3acc:	fc042783          	lw	a5,-64(s0)
    3ad0:	fff78793          	addi	a5,a5,-1
    3ad4:	fcf42023          	sw	a5,-64(s0)
      while (space > 0 && sp->tx_out != sp->tx_in)
    3ad8:	fc042783          	lw	a5,-64(s0)
    3adc:	00078c63          	beqz	a5,3af4 <altera_avalon_jtag_uart_irq+0x1d0>
    3ae0:	fc442783          	lw	a5,-60(s0)
    3ae4:	0347a703          	lw	a4,52(a5)
    3ae8:	fc442783          	lw	a5,-60(s0)
    3aec:	0307a783          	lw	a5,48(a5)
    3af0:	f8f718e3          	bne	a4,a5,3a80 <altera_avalon_jtag_uart_irq+0x15c>
      {
        /* Post an event to notify jtag_uart_write that a character has been written */
        ALT_FLAG_POST (sp->events, ALT_JTAG_UART_WRITE_RDY, ALT_FLAG_SET);
      }

      if (space > 0)
    3af4:	fc042783          	lw	a5,-64(s0)
    3af8:	e4078ae3          	beqz	a5,394c <altera_avalon_jtag_uart_irq+0x28>
      {
        /* If we don't have any more data available then turn off the TX interrupt */
        sp->irq_enable &= ~ALTERA_AVALON_JTAG_UART_CONTROL_WE_MSK;
    3afc:	fc442783          	lw	a5,-60(s0)
    3b00:	0207a783          	lw	a5,32(a5)
    3b04:	ffd7f713          	andi	a4,a5,-3
    3b08:	fc442783          	lw	a5,-60(s0)
    3b0c:	02e7a023          	sw	a4,32(a5)
        IOWR_ALTERA_AVALON_JTAG_UART_CONTROL(sp->base, sp->irq_enable);
    3b10:	fc442783          	lw	a5,-60(s0)
    3b14:	0207a783          	lw	a5,32(a5)
    3b18:	fef42423          	sw	a5,-24(s0)
    3b1c:	fc442783          	lw	a5,-60(s0)
    3b20:	0007a783          	lw	a5,0(a5)
    3b24:	00478793          	addi	a5,a5,4
    3b28:	00078713          	mv	a4,a5
    3b2c:	fe842783          	lw	a5,-24(s0)
    3b30:	00f72023          	sw	a5,0(a4) # 1000 <correctHighestPeaks+0xa0>
        
        /* Dummy read to ensure IRQ is cleared prior to ISR completion */
        IORD_ALTERA_AVALON_JTAG_UART_CONTROL(base);
    3b34:	fc842783          	lw	a5,-56(s0)
    3b38:	00478793          	addi	a5,a5,4
    3b3c:	0007a783          	lw	a5,0(a5)
    3b40:	fef42623          	sw	a5,-20(s0)
  {
    3b44:	e09ff06f          	j	394c <altera_avalon_jtag_uart_irq+0x28>
      break;
    3b48:	00000013          	nop
      }
    }
  }
}
    3b4c:	00000013          	nop
    3b50:	05c12403          	lw	s0,92(sp)
    3b54:	06010113          	addi	sp,sp,96
    3b58:	00008067          	ret

00003b5c <altera_avalon_jtag_uart_timeout>:
 * Timeout routine is called every second
 */

static alt_u32 
altera_avalon_jtag_uart_timeout(void* context) 
{
    3b5c:	fd010113          	addi	sp,sp,-48
    3b60:	02812623          	sw	s0,44(sp)
    3b64:	03010413          	addi	s0,sp,48
    3b68:	fca42e23          	sw	a0,-36(s0)
  altera_avalon_jtag_uart_state* sp = (altera_avalon_jtag_uart_state *) context;
    3b6c:	fdc42783          	lw	a5,-36(s0)
    3b70:	fef42023          	sw	a5,-32(s0)

  unsigned int control = IORD_ALTERA_AVALON_JTAG_UART_CONTROL(sp->base);
    3b74:	fe042783          	lw	a5,-32(s0)
    3b78:	0007a783          	lw	a5,0(a5)
    3b7c:	00478793          	addi	a5,a5,4
    3b80:	0007a783          	lw	a5,0(a5)
    3b84:	fef42223          	sw	a5,-28(s0)
    3b88:	fe442783          	lw	a5,-28(s0)
    3b8c:	fef42423          	sw	a5,-24(s0)

  if (control & ALTERA_AVALON_JTAG_UART_CONTROL_AC_MSK)
    3b90:	fe842783          	lw	a5,-24(s0)
    3b94:	4007f793          	andi	a5,a5,1024
    3b98:	02078c63          	beqz	a5,3bd0 <altera_avalon_jtag_uart_timeout+0x74>
  {
    IOWR_ALTERA_AVALON_JTAG_UART_CONTROL(sp->base, sp->irq_enable | ALTERA_AVALON_JTAG_UART_CONTROL_AC_MSK);
    3b9c:	fe042783          	lw	a5,-32(s0)
    3ba0:	0207a783          	lw	a5,32(a5)
    3ba4:	4007e793          	ori	a5,a5,1024
    3ba8:	fef42623          	sw	a5,-20(s0)
    3bac:	fe042783          	lw	a5,-32(s0)
    3bb0:	0007a783          	lw	a5,0(a5)
    3bb4:	00478793          	addi	a5,a5,4
    3bb8:	00078713          	mv	a4,a5
    3bbc:	fec42783          	lw	a5,-20(s0)
    3bc0:	00f72023          	sw	a5,0(a4)
    sp->host_inactive = 0;
    3bc4:	fe042783          	lw	a5,-32(s0)
    3bc8:	0207a223          	sw	zero,36(a5)
    3bcc:	0340006f          	j	3c00 <altera_avalon_jtag_uart_timeout+0xa4>
  }
  else if (sp->host_inactive < INT_MAX - 2) {
    3bd0:	fe042783          	lw	a5,-32(s0)
    3bd4:	0247a703          	lw	a4,36(a5)
    3bd8:	800007b7          	lui	a5,0x80000
    3bdc:	ffc7c793          	xori	a5,a5,-4
    3be0:	02e7e063          	bltu	a5,a4,3c00 <altera_avalon_jtag_uart_timeout+0xa4>
    sp->host_inactive++;
    3be4:	fe042783          	lw	a5,-32(s0)
    3be8:	0247a783          	lw	a5,36(a5) # 80000024 <__alt_data_end+0x7ff85f04>
    3bec:	00178713          	addi	a4,a5,1
    3bf0:	fe042783          	lw	a5,-32(s0)
    3bf4:	02e7a223          	sw	a4,36(a5)
    
    if (sp->host_inactive >= sp->timeout) {
    3bf8:	fe042783          	lw	a5,-32(s0)
    3bfc:	0247a783          	lw	a5,36(a5)
    3c00:	000317b7          	lui	a5,0x31
    3c04:	d707a783          	lw	a5,-656(a5) # 30d70 <_alt_tick_rate>
      ALT_FLAG_POST (sp->events, ALT_JTAG_UART_TIMEOUT, ALT_FLAG_SET);
    }
  }

  return alt_ticks_per_second();
}
    3c08:	00078513          	mv	a0,a5
    3c0c:	02c12403          	lw	s0,44(sp)
    3c10:	03010113          	addi	sp,sp,48
    3c14:	00008067          	ret

00003c18 <altera_avalon_jtag_uart_close>:
 * The close routine is not implemented for the small driver; instead it will
 * map to null. This is because the small driver simply waits while characters
 * are transmitted; there is no interrupt-serviced buffer to empty 
 */
int altera_avalon_jtag_uart_close(altera_avalon_jtag_uart_state* sp, int flags)
{
    3c18:	fe010113          	addi	sp,sp,-32
    3c1c:	00812e23          	sw	s0,28(sp)
    3c20:	02010413          	addi	s0,sp,32
    3c24:	fea42623          	sw	a0,-20(s0)
    3c28:	feb42423          	sw	a1,-24(s0)
  /* 
   * Wait for all transmit data to be emptied by the JTAG UART ISR, or
   * for a host-inactivity timeout, in which case transmit data will be lost
   */
  while ( (sp->tx_out != sp->tx_in) && (sp->host_inactive < sp->timeout) ) {
    3c2c:	01c0006f          	j	3c48 <altera_avalon_jtag_uart_close+0x30>
    if (flags & O_NONBLOCK) {
    3c30:	fe842703          	lw	a4,-24(s0)
    3c34:	000047b7          	lui	a5,0x4
    3c38:	00f777b3          	and	a5,a4,a5
    3c3c:	00078663          	beqz	a5,3c48 <altera_avalon_jtag_uart_close+0x30>
      return -EWOULDBLOCK; 
    3c40:	ff500793          	li	a5,-11
    3c44:	0300006f          	j	3c74 <altera_avalon_jtag_uart_close+0x5c>
  while ( (sp->tx_out != sp->tx_in) && (sp->host_inactive < sp->timeout) ) {
    3c48:	fec42783          	lw	a5,-20(s0)
    3c4c:	0347a703          	lw	a4,52(a5) # 4034 <altera_avalon_jtag_uart_write+0x84>
    3c50:	fec42783          	lw	a5,-20(s0)
    3c54:	0307a783          	lw	a5,48(a5)
    3c58:	00f70c63          	beq	a4,a5,3c70 <altera_avalon_jtag_uart_close+0x58>
    3c5c:	fec42783          	lw	a5,-20(s0)
    3c60:	0247a703          	lw	a4,36(a5)
    3c64:	fec42783          	lw	a5,-20(s0)
    3c68:	0047a783          	lw	a5,4(a5)
    3c6c:	fcf762e3          	bltu	a4,a5,3c30 <altera_avalon_jtag_uart_close+0x18>
    }
  }

  return 0;
    3c70:	00000793          	li	a5,0
}
    3c74:	00078513          	mv	a0,a5
    3c78:	01c12403          	lw	s0,28(sp)
    3c7c:	02010113          	addi	sp,sp,32
    3c80:	00008067          	ret

00003c84 <altera_avalon_jtag_uart_ioctl>:
/* ----------------------------------------------------------- */

int 
altera_avalon_jtag_uart_ioctl(altera_avalon_jtag_uart_state* sp, int req,
  void* arg)
{
    3c84:	fd010113          	addi	sp,sp,-48
    3c88:	02812623          	sw	s0,44(sp)
    3c8c:	03010413          	addi	s0,sp,48
    3c90:	fca42e23          	sw	a0,-36(s0)
    3c94:	fcb42c23          	sw	a1,-40(s0)
    3c98:	fcc42a23          	sw	a2,-44(s0)
  int rc = -ENOTTY;
    3c9c:	fe700793          	li	a5,-25
    3ca0:	fef42423          	sw	a5,-24(s0)

  switch (req)
    3ca4:	fd842703          	lw	a4,-40(s0)
    3ca8:	000077b7          	lui	a5,0x7
    3cac:	a0178793          	addi	a5,a5,-1535 # 6a01 <__swhatbuf_r+0x49>
    3cb0:	00f70c63          	beq	a4,a5,3cc8 <altera_avalon_jtag_uart_ioctl+0x44>
    3cb4:	fd842703          	lw	a4,-40(s0)
    3cb8:	000077b7          	lui	a5,0x7
    3cbc:	a0278793          	addi	a5,a5,-1534 # 6a02 <__swhatbuf_r+0x4a>
    3cc0:	06f70263          	beq	a4,a5,3d24 <altera_avalon_jtag_uart_ioctl+0xa0>
      rc = 0;
    }
    break;

  default:
    break;
    3cc4:	0ac0006f          	j	3d70 <altera_avalon_jtag_uart_ioctl+0xec>
    if (sp->timeout != INT_MAX)
    3cc8:	fdc42783          	lw	a5,-36(s0)
    3ccc:	0047a703          	lw	a4,4(a5)
    3cd0:	800007b7          	lui	a5,0x80000
    3cd4:	fff7c793          	not	a5,a5
    3cd8:	08f70663          	beq	a4,a5,3d64 <altera_avalon_jtag_uart_ioctl+0xe0>
      int timeout = *((int *)arg);
    3cdc:	fd442783          	lw	a5,-44(s0)
    3ce0:	0007a783          	lw	a5,0(a5) # 80000000 <__alt_data_end+0x7ff85ee0>
    3ce4:	fef42623          	sw	a5,-20(s0)
      sp->timeout = (timeout >= 2 && timeout < INT_MAX) ? timeout : INT_MAX - 1;
    3ce8:	fec42703          	lw	a4,-20(s0)
    3cec:	00100793          	li	a5,1
    3cf0:	00e7de63          	bge	a5,a4,3d0c <altera_avalon_jtag_uart_ioctl+0x88>
    3cf4:	fec42703          	lw	a4,-20(s0)
    3cf8:	800007b7          	lui	a5,0x80000
